(dp0
I0
(lp1
ccopy_reg
_reconstructor
p2
(cHoles
Cycle
p3
c__builtin__
object
p4
Ntp5
Rp6
(dp7
S'start'
p8
S'0.0'
p9
sS'dim'
p10
I0
sS'end'
p11
S'1.0'
p12
sS'composition'
p13
(lp14
(lp15
S'14'
p16
aa(lp17
S'9'
p18
aasbag2
(g3
g4
Ntp19
Rp20
(dp21
S'start'
p22
S'0.0'
p23
sS'dim'
p24
I0
sS'end'
p25
S'1.0'
p26
sS'composition'
p27
(lp28
(lp29
S'19'
p30
aa(lp31
S'24'
p32
aasbag2
(g3
g4
Ntp33
Rp34
(dp35
S'start'
p36
S'0.0'
p37
sS'dim'
p38
I0
sS'end'
p39
S'1.0'
p40
sS'composition'
p41
(lp42
(lp43
S'25'
p44
aa(lp45
S'27'
p46
aasbag2
(g3
g4
Ntp47
Rp48
(dp49
S'start'
p50
S'0.0'
p51
sS'dim'
p52
I0
sS'end'
p53
S'2.0'
p54
sS'composition'
p55
(lp56
(lp57
S'4'
p58
aa(lp59
S'5'
p60
aasbag2
(g3
g4
Ntp61
Rp62
(dp63
S'start'
p64
S'0.0'
p65
sS'dim'
p66
I0
sS'end'
p67
S'2.0'
p68
sS'composition'
p69
(lp70
(lp71
S'8'
p72
aa(lp73
S'13'
p74
aasbag2
(g3
g4
Ntp75
Rp76
(dp77
S'start'
p78
S'0.0'
p79
sS'dim'
p80
I0
sS'end'
p81
S'2.0'
p82
sS'composition'
p83
(lp84
(lp85
S'14'
p86
aa(lp87
S'15'
p88
aasbag2
(g3
g4
Ntp89
Rp90
(dp91
S'start'
p92
S'0.0'
p93
sS'dim'
p94
I0
sS'end'
p95
S'2.0'
p96
sS'composition'
p97
(lp98
(lp99
S'19'
p100
aa(lp101
S'14'
p102
aasbag2
(g3
g4
Ntp103
Rp104
(dp105
S'start'
p106
S'0.0'
p107
sS'dim'
p108
I0
sS'end'
p109
S'2.0'
p110
sS'composition'
p111
(lp112
(lp113
S'20'
p114
aa(lp115
S'15'
p116
aasbag2
(g3
g4
Ntp117
Rp118
(dp119
S'start'
p120
S'0.0'
p121
sS'dim'
p122
I0
sS'end'
p123
S'2.0'
p124
sS'composition'
p125
(lp126
(lp127
S'23'
p128
aa(lp129
S'18'
p130
aasbag2
(g3
g4
Ntp131
Rp132
(dp133
S'start'
p134
S'0.0'
p135
sS'dim'
p136
I0
sS'end'
p137
S'2.0'
p138
sS'composition'
p139
(lp140
(lp141
S'20'
p142
aa(lp143
S'25'
p144
aasbag2
(g3
g4
Ntp145
Rp146
(dp147
S'start'
p148
S'0.0'
p149
sS'dim'
p150
I0
sS'end'
p151
S'2.0'
p152
sS'composition'
p153
(lp154
(lp155
S'30'
p156
aa(lp157
S'23'
p158
aasbag2
(g3
g4
Ntp159
Rp160
(dp161
S'start'
p162
S'0.0'
p163
sS'dim'
p164
I0
sS'end'
p165
S'2.0'
p166
sS'composition'
p167
(lp168
(lp169
S'4'
p170
aa(lp171
S'8'
p172
aasbag2
(g3
g4
Ntp173
Rp174
(dp175
S'start'
p176
S'0.0'
p177
sS'dim'
p178
I0
sS'end'
p179
S'3.0'
p180
sS'composition'
p181
(lp182
(lp183
S'10'
p184
aa(lp185
S'4'
p186
aasbag2
(g3
g4
Ntp187
Rp188
(dp189
S'start'
p190
S'0.0'
p191
sS'dim'
p192
I0
sS'end'
p193
S'3.0'
p194
sS'composition'
p195
(lp196
(lp197
S'6'
p198
aa(lp199
S'5'
p200
aasbag2
(g3
g4
Ntp201
Rp202
(dp203
S'start'
p204
S'0.0'
p205
sS'dim'
p206
I0
sS'end'
p207
S'4.0'
p208
sS'composition'
p209
(lp210
(lp211
S'7'
p212
aa(lp213
S'4'
p214
aasbag2
(g3
g4
Ntp215
Rp216
(dp217
S'start'
p218
S'0.0'
p219
sS'dim'
p220
I0
sS'end'
p221
S'4.0'
p222
sS'composition'
p223
(lp224
(lp225
S'12'
p226
aa(lp227
S'7'
p228
aasbag2
(g3
g4
Ntp229
Rp230
(dp231
S'start'
p232
S'0.0'
p233
sS'dim'
p234
I0
sS'end'
p235
S'4.0'
p236
sS'composition'
p237
(lp238
(lp239
S'21'
p240
aa(lp241
S'26'
p242
aasbag2
(g3
g4
Ntp243
Rp244
(dp245
S'start'
p246
S'0.0'
p247
sS'dim'
p248
I0
sS'end'
p249
S'4.0'
p250
sS'composition'
p251
(lp252
(lp253
S'20'
p254
aa(lp255
S'21'
p256
aasbag2
(g3
g4
Ntp257
Rp258
(dp259
S'start'
p260
S'0.0'
p261
sS'dim'
p262
I0
sS'end'
p263
S'5.0'
p264
sS'composition'
p265
(lp266
(lp267
S'3'
p268
aa(lp269
S'0'
p270
aasbag2
(g3
g4
Ntp271
Rp272
(dp273
S'start'
p274
S'0.0'
p275
sS'dim'
p276
I0
sS'end'
p277
S'5.0'
p278
sS'composition'
p279
(lp280
(lp281
S'6'
p282
aa(lp283
S'11'
p284
aasbag2
(g3
g4
Ntp285
Rp286
(dp287
S'start'
p288
S'0.0'
p289
sS'dim'
p290
I0
sS'end'
p291
S'5.0'
p292
sS'composition'
p293
(lp294
(lp295
S'17'
p296
aa(lp297
S'22'
p298
aasbag2
(g3
g4
Ntp299
Rp300
(dp301
S'start'
p302
S'0.0'
p303
sS'dim'
p304
I0
sS'end'
p305
S'6.0'
p306
sS'composition'
p307
(lp308
(lp309
S'4'
p310
aa(lp311
S'0'
p312
aasbag2
(g3
g4
Ntp313
Rp314
(dp315
S'start'
p316
S'0.0'
p317
sS'dim'
p318
I0
sS'end'
p319
S'6.0'
p320
sS'composition'
p321
(lp322
(lp323
S'13'
p324
aa(lp325
S'17'
p326
aasbag2
(g3
g4
Ntp327
Rp328
(dp329
S'start'
p330
S'0.0'
p331
sS'dim'
p332
I0
sS'end'
p333
S'8.0'
p334
sS'composition'
p335
(lp336
(lp337
S'16'
p338
aa(lp339
S'11'
p340
aasbag2
(g3
g4
Ntp341
Rp342
(dp343
S'start'
p344
S'0.0'
p345
sS'dim'
p346
I0
sS'end'
p347
S'9.0'
p348
sS'composition'
p349
(lp350
(lp351
S'0'
p352
aa(lp353
S'1'
p354
aasbag2
(g3
g4
Ntp355
Rp356
(dp357
S'start'
p358
S'0.0'
p359
sS'dim'
p360
I0
sS'end'
p361
S'11.0'
p362
sS'composition'
p363
(lp364
(lp365
S'2'
p366
aa(lp367
S'0'
p368
aasbag2
(g3
g4
Ntp369
Rp370
(dp371
S'start'
p372
S'0.0'
p373
sS'dim'
p374
I0
sS'end'
p375
S'31'
p376
sS'composition'
p377
(lp378
(lp379
S'0'
p380
aasbasI1
(lp381
g2
(g3
g4
Ntp382
Rp383
(dp384
S'start'
p385
S'2.0'
p386
sS'dim'
p387
I1
sS'end'
p388
S'3.0'
p389
sS'composition'
p390
(lp391
(lp392
S'14'
p393
aS'15'
p394
aa(lp395
S'14'
p396
aS'19'
p397
aa(lp398
S'19'
p399
aS'20'
p400
aa(lp401
S'15'
p402
aS'20'
p403
aasbag2
(g3
g4
Ntp404
Rp405
(dp406
S'start'
p407
S'3.0'
p408
sS'dim'
p409
I1
sS'end'
p410
S'4.0'
p411
sS'composition'
p412
(lp413
(lp414
S'4'
p415
aS'14'
p416
aa(lp417
S'13'
p418
aS'14'
p419
aa(lp420
S'18'
p421
aS'19'
p422
aa(lp423
S'9'
p424
aS'14'
p425
aa(lp426
S'14'
p427
aS'19'
p428
aa(lp429
S'4'
p430
aS'9'
p431
aa(lp432
S'13'
p433
aS'18'
p434
aasbag2
(g3
g4
Ntp435
Rp436
(dp437
S'start'
p438
S'3.0'
p439
sS'dim'
p440
I1
sS'end'
p441
S'4.0'
p442
sS'composition'
p443
(lp444
(lp445
S'19'
p446
aS'24'
p447
aa(lp448
S'25'
p449
aS'31'
p450
aa(lp451
S'24'
p452
aS'31'
p453
aa(lp454
S'19'
p455
aS'20'
p456
aa(lp457
S'20'
p458
aS'25'
p459
aasbag2
(g3
g4
Ntp460
Rp461
(dp462
S'start'
p463
S'4.0'
p464
sS'dim'
p465
I1
sS'end'
p466
S'5.0'
p467
sS'composition'
p468
(lp469
(lp470
S'24'
p471
aS'30'
p472
aa(lp473
S'18'
p474
aS'19'
p475
aa(lp476
S'18'
p477
aS'23'
p478
aa(lp479
S'23'
p480
aS'30'
p481
aa(lp482
S'19'
p483
aS'24'
p484
aasbag2
(g3
g4
Ntp485
Rp486
(dp487
S'start'
p488
S'3.0'
p489
sS'dim'
p490
I1
sS'end'
p491
S'5.0'
p492
sS'composition'
p493
(lp494
(lp495
S'9'
p496
aS'14'
p497
aa(lp498
S'23'
p499
aS'30'
p500
aa(lp501
S'14'
p502
aS'19'
p503
aa(lp504
S'27'
p505
aS'28'
p506
aa(lp507
S'25'
p508
aS'31'
p509
aa(lp510
S'18'
p511
aS'23'
p512
aa(lp513
S'4'
p514
aS'14'
p515
aa(lp516
S'27'
p517
aS'30'
p518
aa(lp519
S'13'
p520
aS'18'
p521
aa(lp522
S'4'
p523
aS'9'
p524
aa(lp525
S'28'
p526
aS'31'
p527
aa(lp528
S'19'
p529
aS'20'
p530
aa(lp531
S'13'
p532
aS'14'
p533
aa(lp534
S'20'
p535
aS'25'
p536
aasbag2
(g3
g4
Ntp537
Rp538
(dp539
S'start'
p540
S'7.0'
p541
sS'dim'
p542
I1
sS'end'
p543
S'8.0'
p544
sS'composition'
p545
(lp546
(lp547
S'18'
p548
aS'23'
p549
aa(lp550
S'17'
p551
aS'18'
p552
aa(lp553
S'17'
p554
aS'22'
p555
aa(lp556
S'22'
p557
aS'23'
p558
aasbag2
(g3
g4
Ntp559
Rp560
(dp561
S'start'
p562
S'7.0'
p563
sS'dim'
p564
I1
sS'end'
p565
S'9.0'
p566
sS'composition'
p567
(lp568
(lp569
S'12'
p570
aS'17'
p571
aa(lp572
S'8'
p573
aS'12'
p574
aa(lp575
S'18'
p576
aS'23'
p577
aa(lp578
S'17'
p579
aS'22'
p580
aa(lp581
S'8'
p582
aS'18'
p583
aa(lp584
S'22'
p585
aS'23'
p586
aasbag2
(g3
g4
Ntp587
Rp588
(dp589
S'start'
p590
S'10.0'
p591
sS'dim'
p592
I1
sS'end'
p593
S'12.0'
p594
sS'composition'
p595
(lp596
(lp597
S'11'
p598
aS'16'
p599
aa(lp600
S'15'
p601
aS'20'
p602
aa(lp603
S'11'
p604
aS'15'
p605
aa(lp606
S'20'
p607
aS'21'
p608
aa(lp609
S'16'
p610
aS'21'
p611
aasbas.