(dp0
I0
(lp1
ccopy_reg
_reconstructor
p2
(cHoles
Cycle
p3
c__builtin__
object
p4
Ntp5
Rp6
(dp7
S'start'
p8
S'0.0'
p9
sS'dim'
p10
I0
sS'end'
p11
S'1.0'
p12
sS'composition'
p13
(lp14
(lp15
S'8'
p16
aa(lp17
S'3'
p18
aasbag2
(g3
g4
Ntp19
Rp20
(dp21
S'start'
p22
S'0.0'
p23
sS'dim'
p24
I0
sS'end'
p25
S'1.0'
p26
sS'composition'
p27
(lp28
(lp29
S'4'
p30
aa(lp31
S'3'
p32
aasbag2
(g3
g4
Ntp33
Rp34
(dp35
S'start'
p36
S'0.0'
p37
sS'dim'
p38
I0
sS'end'
p39
S'1.0'
p40
sS'composition'
p41
(lp42
(lp43
S'4'
p44
aa(lp45
S'5'
p46
aasbag2
(g3
g4
Ntp47
Rp48
(dp49
S'start'
p50
S'0.0'
p51
sS'dim'
p52
I0
sS'end'
p53
S'1.0'
p54
sS'composition'
p55
(lp56
(lp57
S'8'
p58
aa(lp59
S'13'
p60
aasbag2
(g3
g4
Ntp61
Rp62
(dp63
S'start'
p64
S'0.0'
p65
sS'dim'
p66
I0
sS'end'
p67
S'1.0'
p68
sS'composition'
p69
(lp70
(lp71
S'20'
p72
aa(lp73
S'15'
p74
aasbag2
(g3
g4
Ntp75
Rp76
(dp77
S'start'
p78
S'0.0'
p79
sS'dim'
p80
I0
sS'end'
p81
S'1.0'
p82
sS'composition'
p83
(lp84
(lp85
S'30'
p86
aa(lp87
S'23'
p88
aasbag2
(g3
g4
Ntp89
Rp90
(dp91
S'start'
p92
S'0.0'
p93
sS'dim'
p94
I0
sS'end'
p95
S'1.0'
p96
sS'composition'
p97
(lp98
(lp99
S'25'
p100
aa(lp101
S'31'
p102
aasbag2
(g3
g4
Ntp103
Rp104
(dp105
S'start'
p106
S'0.0'
p107
sS'dim'
p108
I0
sS'end'
p109
S'1.0'
p110
sS'composition'
p111
(lp112
(lp113
S'28'
p114
aa(lp115
S'27'
p116
aasbag2
(g3
g4
Ntp117
Rp118
(dp119
S'start'
p120
S'0.0'
p121
sS'dim'
p122
I0
sS'end'
p123
S'1.0'
p124
sS'composition'
p125
(lp126
(lp127
S'29'
p128
aa(lp129
S'25'
p130
aasbag2
(g3
g4
Ntp131
Rp132
(dp133
S'start'
p134
S'0.0'
p135
sS'dim'
p136
I0
sS'end'
p137
S'2.0'
p138
sS'composition'
p139
(lp140
(lp141
S'14'
p142
aa(lp143
S'15'
p144
aasbag2
(g3
g4
Ntp145
Rp146
(dp147
S'start'
p148
S'0.0'
p149
sS'dim'
p150
I0
sS'end'
p151
S'2.0'
p152
sS'composition'
p153
(lp154
(lp155
S'20'
p156
aa(lp157
S'25'
p158
aasbag2
(g3
g4
Ntp159
Rp160
(dp161
S'start'
p162
S'0.0'
p163
sS'dim'
p164
I0
sS'end'
p165
S'2.0'
p166
sS'composition'
p167
(lp168
(lp169
S'27'
p170
aa(lp171
S'23'
p172
aasbag2
(g3
g4
Ntp173
Rp174
(dp175
S'start'
p176
S'0.0'
p177
sS'dim'
p178
I0
sS'end'
p179
S'3.0'
p180
sS'composition'
p181
(lp182
(lp183
S'6'
p184
aa(lp185
S'5'
p186
aasbag2
(g3
g4
Ntp187
Rp188
(dp189
S'start'
p190
S'0.0'
p191
sS'dim'
p192
I0
sS'end'
p193
S'4.0'
p194
sS'composition'
p195
(lp196
(lp197
S'18'
p198
aa(lp199
S'22'
p200
aasbag2
(g3
g4
Ntp201
Rp202
(dp203
S'start'
p204
S'0.0'
p205
sS'dim'
p206
I0
sS'end'
p207
S'5.0'
p208
sS'composition'
p209
(lp210
(lp211
S'2'
p212
aa(lp213
S'3'
p214
aasbag2
(g3
g4
Ntp215
Rp216
(dp217
S'start'
p218
S'0.0'
p219
sS'dim'
p220
I0
sS'end'
p221
S'5.0'
p222
sS'composition'
p223
(lp224
(lp225
S'25'
p226
aa(lp227
S'26'
p228
aasbag2
(g3
g4
Ntp229
Rp230
(dp231
S'start'
p232
S'0.0'
p233
sS'dim'
p234
I0
sS'end'
p235
S'6.0'
p236
sS'composition'
p237
(lp238
(lp239
S'2'
p240
aa(lp241
S'0'
p242
aasbag2
(g3
g4
Ntp243
Rp244
(dp245
S'start'
p246
S'0.0'
p247
sS'dim'
p248
I0
sS'end'
p249
S'6.0'
p250
sS'composition'
p251
(lp252
(lp253
S'6'
p254
aa(lp255
S'11'
p256
aasbag2
(g3
g4
Ntp257
Rp258
(dp259
S'start'
p260
S'0.0'
p261
sS'dim'
p262
I0
sS'end'
p263
S'6.0'
p264
sS'composition'
p265
(lp266
(lp267
S'16'
p268
aa(lp269
S'11'
p270
aasbag2
(g3
g4
Ntp271
Rp272
(dp273
S'start'
p274
S'0.0'
p275
sS'dim'
p276
I0
sS'end'
p277
S'6.0'
p278
sS'composition'
p279
(lp280
(lp281
S'8'
p282
aa(lp283
S'12'
p284
aasbag2
(g3
g4
Ntp285
Rp286
(dp287
S'start'
p288
S'0.0'
p289
sS'dim'
p290
I0
sS'end'
p291
S'7.0'
p292
sS'composition'
p293
(lp294
(lp295
S'7'
p296
aa(lp297
S'3'
p298
aasbag2
(g3
g4
Ntp299
Rp300
(dp301
S'start'
p302
S'0.0'
p303
sS'dim'
p304
I0
sS'end'
p305
S'7.0'
p306
sS'composition'
p307
(lp308
(lp309
S'12'
p310
aa(lp311
S'17'
p312
aasbag2
(g3
g4
Ntp313
Rp314
(dp315
S'start'
p316
S'0.0'
p317
sS'dim'
p318
I0
sS'end'
p319
S'7.0'
p320
sS'composition'
p321
(lp322
(lp323
S'16'
p324
aa(lp325
S'21'
p326
aasbag2
(g3
g4
Ntp327
Rp328
(dp329
S'start'
p330
S'0.0'
p331
sS'dim'
p332
I0
sS'end'
p333
S'8.0'
p334
sS'composition'
p335
(lp336
(lp337
S'10'
p338
aa(lp339
S'9'
p340
aasbag2
(g3
g4
Ntp341
Rp342
(dp343
S'start'
p344
S'0.0'
p345
sS'dim'
p346
I0
sS'end'
p347
S'9.0'
p348
sS'composition'
p349
(lp350
(lp351
S'0'
p352
aa(lp353
S'1'
p354
aasbag2
(g3
g4
Ntp355
Rp356
(dp357
S'start'
p358
S'0.0'
p359
sS'dim'
p360
I0
sS'end'
p361
S'31'
p362
sS'composition'
p363
(lp364
(lp365
S'0'
p366
aasbasI1
(lp367
g2
(g3
g4
Ntp368
Rp369
(dp370
S'start'
p371
S'2.0'
p372
sS'dim'
p373
I1
sS'end'
p374
S'3.0'
p375
sS'composition'
p376
(lp377
(lp378
S'13'
p379
aS'14'
p380
aa(lp381
S'9'
p382
aS'14'
p383
aa(lp384
S'8'
p385
aS'9'
p386
aa(lp387
S'8'
p388
aS'13'
p389
aasbag2
(g3
g4
Ntp390
Rp391
(dp392
S'start'
p393
S'2.0'
p394
sS'dim'
p395
I1
sS'end'
p396
S'3.0'
p397
sS'composition'
p398
(lp399
(lp400
S'14'
p401
aS'15'
p402
aa(lp403
S'14'
p404
aS'19'
p405
aa(lp406
S'19'
p407
aS'20'
p408
aa(lp409
S'15'
p410
aS'20'
p411
aasbag2
(g3
g4
Ntp412
Rp413
(dp414
S'start'
p415
S'1.0'
p416
sS'dim'
p417
I1
sS'end'
p418
S'3.0'
p419
sS'composition'
p420
(lp421
(lp422
S'3'
p423
aS'9'
p424
aa(lp425
S'19'
p426
aS'24'
p427
aa(lp428
S'3'
p429
aS'8'
p430
aa(lp431
S'9'
p432
aS'14'
p433
aa(lp434
S'18'
p435
aS'23'
p436
aa(lp437
S'14'
p438
aS'19'
p439
aa(lp440
S'8'
p441
aS'13'
p442
aa(lp443
S'13'
p444
aS'18'
p445
aa(lp446
S'23'
p447
aS'24'
p448
aasbag2
(g3
g4
Ntp449
Rp450
(dp451
S'start'
p452
S'2.0'
p453
sS'dim'
p454
I1
sS'end'
p455
S'4.0'
p456
sS'composition'
p457
(lp458
(lp459
S'24'
p460
aS'30'
p461
aa(lp462
S'27'
p463
aS'30'
p464
aa(lp465
S'25'
p466
aS'31'
p467
aa(lp468
S'28'
p469
aS'29'
p470
aa(lp471
S'27'
p472
aS'28'
p473
aa(lp474
S'29'
p475
aS'31'
p476
aa(lp477
S'20'
p478
aS'24'
p479
aa(lp480
S'20'
p481
aS'25'
p482
aasbag2
(g3
g4
Ntp483
Rp484
(dp485
S'start'
p486
S'5.0'
p487
sS'dim'
p488
I1
sS'end'
p489
S'6.0'
p490
sS'composition'
p491
(lp492
(lp493
S'22'
p494
aS'27'
p495
aa(lp496
S'27'
p497
aS'30'
p498
aa(lp499
S'23'
p500
aS'30'
p501
aa(lp502
S'22'
p503
aS'23'
p504
aasbag2
(g3
g4
Ntp505
Rp506
(dp507
S'start'
p508
S'7.0'
p509
sS'dim'
p510
I1
sS'end'
p511
S'8.0'
p512
sS'composition'
p513
(lp514
(lp515
S'11'
p516
aS'16'
p517
aa(lp518
S'5'
p519
aS'15'
p520
aa(lp521
S'5'
p522
aS'11'
p523
aa(lp524
S'15'
p525
aS'16'
p526
aasbag2
(g3
g4
Ntp527
Rp528
(dp529
S'start'
p530
S'7.0'
p531
sS'dim'
p532
I1
sS'end'
p533
S'8.0'
p534
sS'composition'
p535
(lp536
(lp537
S'12'
p538
aS'17'
p539
aa(lp540
S'18'
p541
aS'23'
p542
aa(lp543
S'17'
p544
aS'22'
p545
aa(lp546
S'8'
p547
aS'18'
p548
aa(lp549
S'22'
p550
aS'23'
p551
aa(lp552
S'8'
p553
aS'12'
p554
aasbag2
(g3
g4
Ntp555
Rp556
(dp557
S'start'
p558
S'7.0'
p559
sS'dim'
p560
I1
sS'end'
p561
S'9.0'
p562
sS'composition'
p563
(lp564
(lp565
S'16'
p566
aS'20'
p567
aa(lp568
S'21'
p569
aS'25'
p570
aa(lp571
S'16'
p572
aS'21'
p573
aa(lp574
S'20'
p575
aS'25'
p576
aasbas.