(dp0
I0
(lp1
ccopy_reg
_reconstructor
p2
(cHoles
Cycle
p3
c__builtin__
object
p4
Ntp5
Rp6
(dp7
S'start'
p8
S'0.0'
p9
sS'dim'
p10
I0
sS'end'
p11
S'1.0'
p12
sS'composition'
p13
(lp14
(lp15
S'4'
p16
aa(lp17
S'5'
p18
aasbag2
(g3
g4
Ntp19
Rp20
(dp21
S'start'
p22
S'0.0'
p23
sS'dim'
p24
I0
sS'end'
p25
S'1.0'
p26
sS'composition'
p27
(lp28
(lp29
S'10'
p30
aa(lp31
S'5'
p32
aasbag2
(g3
g4
Ntp33
Rp34
(dp35
S'start'
p36
S'0.0'
p37
sS'dim'
p38
I0
sS'end'
p39
S'1.0'
p40
sS'composition'
p41
(lp42
(lp43
S'8'
p44
aa(lp45
S'13'
p46
aasbag2
(g3
g4
Ntp47
Rp48
(dp49
S'start'
p50
S'0.0'
p51
sS'dim'
p52
I0
sS'end'
p53
S'1.0'
p54
sS'composition'
p55
(lp56
(lp57
S'19'
p58
aa(lp59
S'24'
p60
aasbag2
(g3
g4
Ntp61
Rp62
(dp63
S'start'
p64
S'0.0'
p65
sS'dim'
p66
I0
sS'end'
p67
S'1.0'
p68
sS'composition'
p69
(lp70
(lp71
S'28'
p72
aa(lp73
S'23'
p74
aasbag2
(g3
g4
Ntp75
Rp76
(dp77
S'start'
p78
S'0.0'
p79
sS'dim'
p80
I0
sS'end'
p81
S'2.0'
p82
sS'composition'
p83
(lp84
(lp85
S'4'
p86
aa(lp87
S'0'
p88
aasbag2
(g3
g4
Ntp89
Rp90
(dp91
S'start'
p92
S'0.0'
p93
sS'dim'
p94
I0
sS'end'
p95
S'2.0'
p96
sS'composition'
p97
(lp98
(lp99
S'8'
p100
aa(lp101
S'3'
p102
aasbag2
(g3
g4
Ntp103
Rp104
(dp105
S'start'
p106
S'0.0'
p107
sS'dim'
p108
I0
sS'end'
p109
S'2.0'
p110
sS'composition'
p111
(lp112
(lp113
S'10'
p114
aa(lp115
S'15'
p116
aasbag2
(g3
g4
Ntp117
Rp118
(dp119
S'start'
p120
S'0.0'
p121
sS'dim'
p122
I0
sS'end'
p123
S'2.0'
p124
sS'composition'
p125
(lp126
(lp127
S'23'
p128
aa(lp129
S'18'
p130
aasbag2
(g3
g4
Ntp131
Rp132
(dp133
S'start'
p134
S'0.0'
p135
sS'dim'
p136
I0
sS'end'
p137
S'2.0'
p138
sS'composition'
p139
(lp140
(lp141
S'25'
p142
aa(lp143
S'26'
p144
aasbag2
(g3
g4
Ntp145
Rp146
(dp147
S'start'
p148
S'0.0'
p149
sS'dim'
p150
I0
sS'end'
p151
S'3.0'
p152
sS'composition'
p153
(lp154
(lp155
S'0'
p156
aa(lp157
S'1'
p158
aasbag2
(g3
g4
Ntp159
Rp160
(dp161
S'start'
p162
S'0.0'
p163
sS'dim'
p164
I0
sS'end'
p165
S'3.0'
p166
sS'composition'
p167
(lp168
(lp169
S'3'
p170
aa(lp171
S'0'
p172
aasbag2
(g3
g4
Ntp173
Rp174
(dp175
S'start'
p176
S'0.0'
p177
sS'dim'
p178
I0
sS'end'
p179
S'3.0'
p180
sS'composition'
p181
(lp182
(lp183
S'8'
p184
aa(lp185
S'14'
p186
aasbag2
(g3
g4
Ntp187
Rp188
(dp189
S'start'
p190
S'0.0'
p191
sS'dim'
p192
I0
sS'end'
p193
S'3.0'
p194
sS'composition'
p195
(lp196
(lp197
S'14'
p198
aa(lp199
S'18'
p200
aasbag2
(g3
g4
Ntp201
Rp202
(dp203
S'start'
p204
S'0.0'
p205
sS'dim'
p206
I0
sS'end'
p207
S'3.0'
p208
sS'composition'
p209
(lp210
(lp211
S'25'
p212
aa(lp213
S'23'
p214
aasbag2
(g3
g4
Ntp215
Rp216
(dp217
S'start'
p218
S'0.0'
p219
sS'dim'
p220
I0
sS'end'
p221
S'3.0'
p222
sS'composition'
p223
(lp224
(lp225
S'27'
p226
aa(lp227
S'23'
p228
aasbag2
(g3
g4
Ntp229
Rp230
(dp231
S'start'
p232
S'0.0'
p233
sS'dim'
p234
I0
sS'end'
p235
S'4.0'
p236
sS'composition'
p237
(lp238
(lp239
S'2'
p240
aa(lp241
S'0'
p242
aasbag2
(g3
g4
Ntp243
Rp244
(dp245
S'start'
p246
S'0.0'
p247
sS'dim'
p248
I0
sS'end'
p249
S'4.0'
p250
sS'composition'
p251
(lp252
(lp253
S'20'
p254
aa(lp255
S'15'
p256
aasbag2
(g3
g4
Ntp257
Rp258
(dp259
S'start'
p260
S'0.0'
p261
sS'dim'
p262
I0
sS'end'
p263
S'4.0'
p264
sS'composition'
p265
(lp266
(lp267
S'21'
p268
aa(lp269
S'18'
p270
aasbag2
(g3
g4
Ntp271
Rp272
(dp273
S'start'
p274
S'0.0'
p275
sS'dim'
p276
I0
sS'end'
p277
S'5.0'
p278
sS'composition'
p279
(lp280
(lp281
S'7'
p282
aa(lp283
S'2'
p284
aasbag2
(g3
g4
Ntp285
Rp286
(dp287
S'start'
p288
S'0.0'
p289
sS'dim'
p290
I0
sS'end'
p291
S'6.0'
p292
sS'composition'
p293
(lp294
(lp295
S'6'
p296
aa(lp297
S'5'
p298
aasbag2
(g3
g4
Ntp299
Rp300
(dp301
S'start'
p302
S'0.0'
p303
sS'dim'
p304
I0
sS'end'
p305
S'6.0'
p306
sS'composition'
p307
(lp308
(lp309
S'16'
p310
aa(lp311
S'14'
p312
aasbag2
(g3
g4
Ntp313
Rp314
(dp315
S'start'
p316
S'0.0'
p317
sS'dim'
p318
I0
sS'end'
p319
S'7.0'
p320
sS'composition'
p321
(lp322
(lp323
S'12'
p324
aa(lp325
S'7'
p326
aasbag2
(g3
g4
Ntp327
Rp328
(dp329
S'start'
p330
S'0.0'
p331
sS'dim'
p332
I0
sS'end'
p333
S'8.0'
p334
sS'composition'
p335
(lp336
(lp337
S'12'
p338
aa(lp339
S'17'
p340
aasbag2
(g3
g4
Ntp341
Rp342
(dp343
S'start'
p344
S'0.0'
p345
sS'dim'
p346
I0
sS'end'
p347
S'9.0'
p348
sS'composition'
p349
(lp350
(lp351
S'18'
p352
aa(lp353
S'22'
p354
aasbag2
(g3
g4
Ntp355
Rp356
(dp357
S'start'
p358
S'0.0'
p359
sS'dim'
p360
I0
sS'end'
p361
S'13.0'
p362
sS'composition'
p363
(lp364
(lp365
S'10'
p366
aa(lp367
S'11'
p368
aasbag2
(g3
g4
Ntp369
Rp370
(dp371
S'start'
p372
S'0.0'
p373
sS'dim'
p374
I0
sS'end'
p375
S'32'
p376
sS'composition'
p377
(lp378
(lp379
S'0'
p380
aasbasI1
(lp381
g2
(g3
g4
Ntp382
Rp383
(dp384
S'start'
p385
S'3.0'
p386
sS'dim'
p387
I1
sS'end'
p388
S'4.0'
p389
sS'composition'
p390
(lp391
(lp392
S'3'
p393
aS'8'
p394
aa(lp395
S'9'
p396
aS'14'
p397
aa(lp398
S'3'
p399
aS'9'
p400
aa(lp401
S'8'
p402
aS'14'
p403
aasbag2
(g3
g4
Ntp404
Rp405
(dp406
S'start'
p407
S'5.0'
p408
sS'dim'
p409
I1
sS'end'
p410
S'6.0'
p411
sS'composition'
p412
(lp413
(lp414
S'15'
p415
aS'19'
p416
aa(lp417
S'19'
p418
aS'24'
p419
aa(lp420
S'15'
p421
aS'20'
p422
aa(lp423
S'20'
p424
aS'24'
p425
aasbag2
(g3
g4
Ntp426
Rp427
(dp428
S'start'
p429
S'7.0'
p430
sS'dim'
p431
I1
sS'end'
p432
S'8.0'
p433
sS'composition'
p434
(lp435
(lp436
S'8'
p437
aS'12'
p438
aa(lp439
S'2'
p440
aS'7'
p441
aa(lp442
S'7'
p443
aS'12'
p444
aa(lp445
S'2'
p446
aS'8'
p447
aasbag2
(g3
g4
Ntp448
Rp449
(dp450
S'start'
p451
S'6.0'
p452
sS'dim'
p453
I1
sS'end'
p454
S'8.0'
p455
sS'composition'
p456
(lp457
(lp458
S'25'
p459
aS'29'
p460
aa(lp461
S'23'
p462
aS'28'
p463
aa(lp464
S'18'
p465
aS'23'
p466
aa(lp467
S'20'
p468
aS'25'
p469
aa(lp470
S'20'
p471
aS'24'
p472
aa(lp473
S'28'
p474
aS'29'
p475
aa(lp476
S'18'
p477
aS'24'
p478
aasbag2
(g3
g4
Ntp479
Rp480
(dp481
S'start'
p482
S'8.0'
p483
sS'dim'
p484
I1
sS'end'
p485
S'10.0'
p486
sS'composition'
p487
(lp488
(lp489
S'21'
p490
aS'26'
p491
aa(lp492
S'15'
p493
aS'20'
p494
aa(lp495
S'15'
p496
aS'16'
p497
aa(lp498
S'25'
p499
aS'26'
p500
aa(lp501
S'16'
p502
aS'21'
p503
aa(lp504
S'20'
p505
aS'25'
p506
aasbag2
(g3
g4
Ntp507
Rp508
(dp509
S'start'
p510
S'10.0'
p511
sS'dim'
p512
I1
sS'end'
p513
S'13.0'
p514
sS'composition'
p515
(lp516
(lp517
S'12'
p518
aS'17'
p519
aa(lp520
S'8'
p521
aS'12'
p522
aa(lp523
S'18'
p524
aS'23'
p525
aa(lp526
S'17'
p527
aS'22'
p528
aa(lp529
S'8'
p530
aS'18'
p531
aa(lp532
S'22'
p533
aS'23'
p534
aasbag2
(g3
g4
Ntp535
Rp536
(dp537
S'start'
p538
S'17.0'
p539
sS'dim'
p540
I1
sS'end'
p541
S'19.0'
p542
sS'composition'
p543
(lp544
(lp545
S'0'
p546
aS'19'
p547
aa(lp548
S'0'
p549
aS'1'
p550
aa(lp551
S'22'
p552
aS'28'
p553
aa(lp554
S'1'
p555
aS'22'
p556
aa(lp557
S'19'
p558
aS'28'
p559
aasbas.