(dp0
I0
(lp1
ccopy_reg
_reconstructor
p2
(cHoles
Cycle
p3
c__builtin__
object
p4
Ntp5
Rp6
(dp7
S'start'
p8
S'0.0'
p9
sS'dim'
p10
I0
sS'end'
p11
S'1.0'
p12
sS'composition'
p13
(lp14
(lp15
S'30'
p16
aa(lp17
S'28'
p18
aasbag2
(g3
g4
Ntp19
Rp20
(dp21
S'start'
p22
S'0.0'
p23
sS'dim'
p24
I0
sS'end'
p25
S'2.0'
p26
sS'composition'
p27
(lp28
(lp29
S'6'
p30
aa(lp31
S'11'
p32
aasbag2
(g3
g4
Ntp33
Rp34
(dp35
S'start'
p36
S'0.0'
p37
sS'dim'
p38
I0
sS'end'
p39
S'2.0'
p40
sS'composition'
p41
(lp42
(lp43
S'16'
p44
aa(lp45
S'21'
p46
aasbag2
(g3
g4
Ntp47
Rp48
(dp49
S'start'
p50
S'0.0'
p51
sS'dim'
p52
I0
sS'end'
p53
S'3.0'
p54
sS'composition'
p55
(lp56
(lp57
S'12'
p58
aa(lp59
S'17'
p60
aasbag2
(g3
g4
Ntp61
Rp62
(dp63
S'start'
p64
S'0.0'
p65
sS'dim'
p66
I0
sS'end'
p67
S'3.0'
p68
sS'composition'
p69
(lp70
(lp71
S'25'
p72
aa(lp73
S'31'
p74
aasbag2
(g3
g4
Ntp75
Rp76
(dp77
S'start'
p78
S'0.0'
p79
sS'dim'
p80
I0
sS'end'
p81
S'3.0'
p82
sS'composition'
p83
(lp84
(lp85
S'28'
p86
aa(lp87
S'27'
p88
aasbag2
(g3
g4
Ntp89
Rp90
(dp91
S'start'
p92
S'0.0'
p93
sS'dim'
p94
I0
sS'end'
p95
S'4.0'
p96
sS'composition'
p97
(lp98
(lp99
S'23'
p100
aa(lp101
S'18'
p102
aasbag2
(g3
g4
Ntp103
Rp104
(dp105
S'start'
p106
S'0.0'
p107
sS'dim'
p108
I0
sS'end'
p109
S'4.0'
p110
sS'composition'
p111
(lp112
(lp113
S'21'
p114
aa(lp115
S'26'
p116
aasbag2
(g3
g4
Ntp117
Rp118
(dp119
S'start'
p120
S'0.0'
p121
sS'dim'
p122
I0
sS'end'
p123
S'4.0'
p124
sS'composition'
p125
(lp126
(lp127
S'29'
p128
aa(lp129
S'26'
p130
aasbag2
(g3
g4
Ntp131
Rp132
(dp133
S'start'
p134
S'0.0'
p135
sS'dim'
p136
I0
sS'end'
p137
S'4.0'
p138
sS'composition'
p139
(lp140
(lp141
S'25'
p142
aa(lp143
S'21'
p144
aasbag2
(g3
g4
Ntp145
Rp146
(dp147
S'start'
p148
S'0.0'
p149
sS'dim'
p150
I0
sS'end'
p151
S'5.0'
p152
sS'composition'
p153
(lp154
(lp155
S'4'
p156
aa(lp157
S'0'
p158
aasbag2
(g3
g4
Ntp159
Rp160
(dp161
S'start'
p162
S'0.0'
p163
sS'dim'
p164
I0
sS'end'
p165
S'5.0'
p166
sS'composition'
p167
(lp168
(lp169
S'7'
p170
aa(lp171
S'2'
p172
aasbag2
(g3
g4
Ntp173
Rp174
(dp175
S'start'
p176
S'0.0'
p177
sS'dim'
p178
I0
sS'end'
p179
S'5.0'
p180
sS'composition'
p181
(lp182
(lp183
S'20'
p184
aa(lp185
S'14'
p186
aasbag2
(g3
g4
Ntp187
Rp188
(dp189
S'start'
p190
S'0.0'
p191
sS'dim'
p192
I0
sS'end'
p193
S'5.0'
p194
sS'composition'
p195
(lp196
(lp197
S'14'
p198
aa(lp199
S'15'
p200
aasbag2
(g3
g4
Ntp201
Rp202
(dp203
S'start'
p204
S'0.0'
p205
sS'dim'
p206
I0
sS'end'
p207
S'5.0'
p208
sS'composition'
p209
(lp210
(lp211
S'14'
p212
aa(lp213
S'18'
p214
aasbag2
(g3
g4
Ntp215
Rp216
(dp217
S'start'
p218
S'0.0'
p219
sS'dim'
p220
I0
sS'end'
p221
S'5.0'
p222
sS'composition'
p223
(lp224
(lp225
S'16'
p226
aa(lp227
S'14'
p228
aasbag2
(g3
g4
Ntp229
Rp230
(dp231
S'start'
p232
S'0.0'
p233
sS'dim'
p234
I0
sS'end'
p235
S'5.0'
p236
sS'composition'
p237
(lp238
(lp239
S'27'
p240
aa(lp241
S'23'
p242
aasbag2
(g3
g4
Ntp243
Rp244
(dp245
S'start'
p246
S'0.0'
p247
sS'dim'
p248
I0
sS'end'
p249
S'6.0'
p250
sS'composition'
p251
(lp252
(lp253
S'0'
p254
aa(lp255
S'1'
p256
aasbag2
(g3
g4
Ntp257
Rp258
(dp259
S'start'
p260
S'0.0'
p261
sS'dim'
p262
I0
sS'end'
p263
S'6.0'
p264
sS'composition'
p265
(lp266
(lp267
S'4'
p268
aa(lp269
S'5'
p270
aasbag2
(g3
g4
Ntp271
Rp272
(dp273
S'start'
p274
S'0.0'
p275
sS'dim'
p276
I0
sS'end'
p277
S'6.0'
p278
sS'composition'
p279
(lp280
(lp281
S'10'
p282
aa(lp283
S'4'
p284
aasbag2
(g3
g4
Ntp285
Rp286
(dp287
S'start'
p288
S'0.0'
p289
sS'dim'
p290
I0
sS'end'
p291
S'6.0'
p292
sS'composition'
p293
(lp294
(lp295
S'8'
p296
aa(lp297
S'13'
p298
aasbag2
(g3
g4
Ntp299
Rp300
(dp301
S'start'
p302
S'0.0'
p303
sS'dim'
p304
I0
sS'end'
p305
S'6.0'
p306
sS'composition'
p307
(lp308
(lp309
S'4'
p310
aa(lp311
S'9'
p312
aasbag2
(g3
g4
Ntp313
Rp314
(dp315
S'start'
p316
S'0.0'
p317
sS'dim'
p318
I0
sS'end'
p319
S'6.0'
p320
sS'composition'
p321
(lp322
(lp323
S'8'
p324
aa(lp325
S'4'
p326
aasbag2
(g3
g4
Ntp327
Rp328
(dp329
S'start'
p330
S'0.0'
p331
sS'dim'
p332
I0
sS'end'
p333
S'7.0'
p334
sS'composition'
p335
(lp336
(lp337
S'6'
p338
aa(lp339
S'4'
p340
aasbag2
(g3
g4
Ntp341
Rp342
(dp343
S'start'
p344
S'0.0'
p345
sS'dim'
p346
I0
sS'end'
p347
S'7.0'
p348
sS'composition'
p349
(lp350
(lp351
S'18'
p352
aa(lp353
S'22'
p354
aasbag2
(g3
g4
Ntp355
Rp356
(dp357
S'start'
p358
S'0.0'
p359
sS'dim'
p360
I0
sS'end'
p361
S'8.0'
p362
sS'composition'
p363
(lp364
(lp365
S'2'
p366
aa(lp367
S'0'
p368
aasbag2
(g3
g4
Ntp369
Rp370
(dp371
S'start'
p372
S'0.0'
p373
sS'dim'
p374
I0
sS'end'
p375
S'8.0'
p376
sS'composition'
p377
(lp378
(lp379
S'12'
p380
aa(lp381
S'7'
p382
aasbag2
(g3
g4
Ntp383
Rp384
(dp385
S'start'
p386
S'0.0'
p387
sS'dim'
p388
I0
sS'end'
p389
S'9.0'
p390
sS'composition'
p391
(lp392
(lp393
S'3'
p394
aa(lp395
S'0'
p396
aasbag2
(g3
g4
Ntp397
Rp398
(dp399
S'start'
p400
S'0.0'
p401
sS'dim'
p402
I0
sS'end'
p403
S'33'
p404
sS'composition'
p405
(lp406
(lp407
S'0'
p408
aasbasI1
(lp409
g2
(g3
g4
Ntp410
Rp411
(dp412
S'start'
p413
S'7.0'
p414
sS'dim'
p415
I1
sS'end'
p416
S'9.0'
p417
sS'composition'
p418
(lp419
(lp420
S'4'
p421
aS'10'
p422
aa(lp423
S'9'
p424
aS'14'
p425
aa(lp426
S'8'
p427
aS'13'
p428
aa(lp429
S'10'
p430
aS'15'
p431
aa(lp432
S'9'
p433
aS'18'
p434
aa(lp435
S'14'
p436
aS'20'
p437
aa(lp438
S'4'
p439
aS'8'
p440
aa(lp441
S'13'
p442
aS'18'
p443
aa(lp444
S'15'
p445
aS'20'
p446
aasbag2
(g3
g4
Ntp447
Rp448
(dp449
S'start'
p450
S'5.0'
p451
sS'dim'
p452
I1
sS'end'
p453
S'9.0'
p454
sS'composition'
p455
(lp456
(lp457
S'14'
p458
aS'20'
p459
aa(lp460
S'9'
p461
aS'24'
p462
aa(lp463
S'9'
p464
aS'14'
p465
aa(lp466
S'23'
p467
aS'30'
p468
aa(lp469
S'18'
p470
aS'23'
p471
aa(lp472
S'30'
p473
aS'31'
p474
aa(lp475
S'18'
p476
aS'24'
p477
aa(lp478
S'20'
p479
aS'25'
p480
aa(lp481
S'25'
p482
aS'31'
p483
aasbag2
(g3
g4
Ntp484
Rp485
(dp486
S'start'
p487
S'10.0'
p488
sS'dim'
p489
I1
sS'end'
p490
S'11.0'
p491
sS'composition'
p492
(lp493
(lp494
S'21'
p495
aS'26'
p496
aa(lp497
S'16'
p498
aS'20'
p499
aa(lp500
S'25'
p501
aS'26'
p502
aa(lp503
S'16'
p504
aS'21'
p505
aa(lp506
S'20'
p507
aS'25'
p508
aasbag2
(g3
g4
Ntp509
Rp510
(dp511
S'start'
p512
S'10.0'
p513
sS'dim'
p514
I1
sS'end'
p515
S'12.0'
p516
sS'composition'
p517
(lp518
(lp519
S'6'
p520
aS'11'
p521
aa(lp522
S'1'
p523
aS'4'
p524
aa(lp525
S'4'
p526
aS'15'
p527
aa(lp528
S'21'
p529
aS'26'
p530
aa(lp531
S'1'
p532
aS'6'
p533
aa(lp534
S'11'
p535
aS'16'
p536
aa(lp537
S'20'
p538
aS'25'
p539
aa(lp540
S'15'
p541
aS'20'
p542
aa(lp543
S'25'
p544
aS'26'
p545
aa(lp546
S'16'
p547
aS'21'
p548
aasbag2
(g3
g4
Ntp549
Rp550
(dp551
S'start'
p552
S'10.0'
p553
sS'dim'
p554
I1
sS'end'
p555
S'13.0'
p556
sS'composition'
p557
(lp558
(lp559
S'12'
p560
aS'17'
p561
aa(lp562
S'0'
p563
aS'4'
p564
aa(lp565
S'2'
p566
aS'7'
p567
aa(lp568
S'7'
p569
aS'12'
p570
aa(lp571
S'0'
p572
aS'2'
p573
aa(lp574
S'13'
p575
aS'18'
p576
aa(lp577
S'4'
p578
aS'13'
p579
aa(lp580
S'17'
p581
aS'18'
p582
aasbag2
(g3
g4
Ntp583
Rp584
(dp585
S'start'
p586
S'11.0'
p587
sS'dim'
p588
I1
sS'end'
p589
S'13.0'
p590
sS'composition'
p591
(lp592
(lp593
S'9'
p594
aS'23'
p595
aa(lp596
S'17'
p597
aS'18'
p598
aa(lp599
S'17'
p600
aS'22'
p601
aa(lp602
S'13'
p603
aS'18'
p604
aa(lp605
S'22'
p606
aS'23'
p607
aa(lp608
S'9'
p609
aS'13'
p610
aasbas.