(dp0
I0
(lp1
ccopy_reg
_reconstructor
p2
(cHoles
Cycle
p3
c__builtin__
object
p4
Ntp5
Rp6
(dp7
S'start'
p8
S'0.0'
p9
sS'dim'
p10
I0
sS'end'
p11
S'1.0'
p12
sS'composition'
p13
(lp14
(lp15
S'8'
p16
aa(lp17
S'3'
p18
aasbag2
(g3
g4
Ntp19
Rp20
(dp21
S'start'
p22
S'0.0'
p23
sS'dim'
p24
I0
sS'end'
p25
S'1.0'
p26
sS'composition'
p27
(lp28
(lp29
S'4'
p30
aa(lp31
S'9'
p32
aasbag2
(g3
g4
Ntp33
Rp34
(dp35
S'start'
p36
S'0.0'
p37
sS'dim'
p38
I0
sS'end'
p39
S'1.0'
p40
sS'composition'
p41
(lp42
(lp43
S'18'
p44
aa(lp45
S'13'
p46
aasbag2
(g3
g4
Ntp47
Rp48
(dp49
S'start'
p50
S'0.0'
p51
sS'dim'
p52
I0
sS'end'
p53
S'1.0'
p54
sS'composition'
p55
(lp56
(lp57
S'23'
p58
aa(lp59
S'18'
p60
aasbag2
(g3
g4
Ntp61
Rp62
(dp63
S'start'
p64
S'0.0'
p65
sS'dim'
p66
I0
sS'end'
p67
S'1.0'
p68
sS'composition'
p69
(lp70
(lp71
S'30'
p72
aa(lp73
S'23'
p74
aasbag2
(g3
g4
Ntp75
Rp76
(dp77
S'start'
p78
S'0.0'
p79
sS'dim'
p80
I0
sS'end'
p81
S'1.0'
p82
sS'composition'
p83
(lp84
(lp85
S'25'
p86
aa(lp87
S'31'
p88
aasbag2
(g3
g4
Ntp89
Rp90
(dp91
S'start'
p92
S'0.0'
p93
sS'dim'
p94
I0
sS'end'
p95
S'1.0'
p96
sS'composition'
p97
(lp98
(lp99
S'28'
p100
aa(lp101
S'27'
p102
aasbag2
(g3
g4
Ntp103
Rp104
(dp105
S'start'
p106
S'0.0'
p107
sS'dim'
p108
I0
sS'end'
p109
S'1.0'
p110
sS'composition'
p111
(lp112
(lp113
S'29'
p114
aa(lp115
S'28'
p116
aasbag2
(g3
g4
Ntp117
Rp118
(dp119
S'start'
p120
S'0.0'
p121
sS'dim'
p122
I0
sS'end'
p123
S'1.0'
p124
sS'composition'
p125
(lp126
(lp127
S'25'
p128
aa(lp129
S'27'
p130
aasbag2
(g3
g4
Ntp131
Rp132
(dp133
S'start'
p134
S'0.0'
p135
sS'dim'
p136
I0
sS'end'
p137
S'2.0'
p138
sS'composition'
p139
(lp140
(lp141
S'4'
p142
aa(lp143
S'3'
p144
aasbag2
(g3
g4
Ntp145
Rp146
(dp147
S'start'
p148
S'0.0'
p149
sS'dim'
p150
I0
sS'end'
p151
S'2.0'
p152
sS'composition'
p153
(lp154
(lp155
S'20'
p156
aa(lp157
S'15'
p158
aasbag2
(g3
g4
Ntp159
Rp160
(dp161
S'start'
p162
S'0.0'
p163
sS'dim'
p164
I0
sS'end'
p165
S'2.0'
p166
sS'composition'
p167
(lp168
(lp169
S'20'
p170
aa(lp171
S'25'
p172
aasbag2
(g3
g4
Ntp173
Rp174
(dp175
S'start'
p176
S'0.0'
p177
sS'dim'
p178
I0
sS'end'
p179
S'2.0'
p180
sS'composition'
p181
(lp182
(lp183
S'14'
p184
aa(lp185
S'15'
p186
aasbag2
(g3
g4
Ntp187
Rp188
(dp189
S'start'
p190
S'0.0'
p191
sS'dim'
p192
I0
sS'end'
p193
S'3.0'
p194
sS'composition'
p195
(lp196
(lp197
S'3'
p198
aa(lp199
S'0'
p200
aasbag2
(g3
g4
Ntp201
Rp202
(dp203
S'start'
p204
S'0.0'
p205
sS'dim'
p206
I0
sS'end'
p207
S'3.0'
p208
sS'composition'
p209
(lp210
(lp211
S'4'
p212
aa(lp213
S'5'
p214
aasbag2
(g3
g4
Ntp215
Rp216
(dp217
S'start'
p218
S'0.0'
p219
sS'dim'
p220
I0
sS'end'
p221
S'3.0'
p222
sS'composition'
p223
(lp224
(lp225
S'16'
p226
aa(lp227
S'11'
p228
aasbag2
(g3
g4
Ntp229
Rp230
(dp231
S'start'
p232
S'0.0'
p233
sS'dim'
p234
I0
sS'end'
p235
S'3.0'
p236
sS'composition'
p237
(lp238
(lp239
S'12'
p240
aa(lp241
S'17'
p242
aasbag2
(g3
g4
Ntp243
Rp244
(dp245
S'start'
p246
S'0.0'
p247
sS'dim'
p248
I0
sS'end'
p249
S'4.0'
p250
sS'composition'
p251
(lp252
(lp253
S'6'
p254
aa(lp255
S'11'
p256
aasbag2
(g3
g4
Ntp257
Rp258
(dp259
S'start'
p260
S'0.0'
p261
sS'dim'
p262
I0
sS'end'
p263
S'4.0'
p264
sS'composition'
p265
(lp266
(lp267
S'12'
p268
aa(lp269
S'7'
p270
aasbag2
(g3
g4
Ntp271
Rp272
(dp273
S'start'
p274
S'0.0'
p275
sS'dim'
p276
I0
sS'end'
p277
S'5.0'
p278
sS'composition'
p279
(lp280
(lp281
S'2'
p282
aa(lp283
S'0'
p284
aasbag2
(g3
g4
Ntp285
Rp286
(dp287
S'start'
p288
S'0.0'
p289
sS'dim'
p290
I0
sS'end'
p291
S'5.0'
p292
sS'composition'
p293
(lp294
(lp295
S'6'
p296
aa(lp297
S'5'
p298
aasbag2
(g3
g4
Ntp299
Rp300
(dp301
S'start'
p302
S'0.0'
p303
sS'dim'
p304
I0
sS'end'
p305
S'5.0'
p306
sS'composition'
p307
(lp308
(lp309
S'7'
p310
aa(lp311
S'3'
p312
aasbag2
(g3
g4
Ntp313
Rp314
(dp315
S'start'
p316
S'0.0'
p317
sS'dim'
p318
I0
sS'end'
p319
S'5.0'
p320
sS'composition'
p321
(lp322
(lp323
S'16'
p324
aa(lp325
S'21'
p326
aasbag2
(g3
g4
Ntp327
Rp328
(dp329
S'start'
p330
S'0.0'
p331
sS'dim'
p332
I0
sS'end'
p333
S'5.0'
p334
sS'composition'
p335
(lp336
(lp337
S'17'
p338
aa(lp339
S'22'
p340
aasbag2
(g3
g4
Ntp341
Rp342
(dp343
S'start'
p344
S'0.0'
p345
sS'dim'
p346
I0
sS'end'
p347
S'6.0'
p348
sS'composition'
p349
(lp350
(lp351
S'0'
p352
aa(lp353
S'1'
p354
aasbag2
(g3
g4
Ntp355
Rp356
(dp357
S'start'
p358
S'0.0'
p359
sS'dim'
p360
I0
sS'end'
p361
S'7.0'
p362
sS'composition'
p363
(lp364
(lp365
S'10'
p366
aa(lp367
S'5'
p368
aasbag2
(g3
g4
Ntp369
Rp370
(dp371
S'start'
p372
S'0.0'
p373
sS'dim'
p374
I0
sS'end'
p375
S'8.0'
p376
sS'composition'
p377
(lp378
(lp379
S'25'
p380
aa(lp381
S'26'
p382
aasbag2
(g3
g4
Ntp383
Rp384
(dp385
S'start'
p386
S'0.0'
p387
sS'dim'
p388
I0
sS'end'
p389
S'31'
p390
sS'composition'
p391
(lp392
(lp393
S'0'
p394
aasbasI1
(lp395
g2
(g3
g4
Ntp396
Rp397
(dp398
S'start'
p399
S'2.0'
p400
sS'dim'
p401
I1
sS'end'
p402
S'3.0'
p403
sS'composition'
p404
(lp405
(lp406
S'13'
p407
aS'14'
p408
aa(lp409
S'9'
p410
aS'14'
p411
aa(lp412
S'8'
p413
aS'9'
p414
aa(lp415
S'8'
p416
aS'13'
p417
aasbag2
(g3
g4
Ntp418
Rp419
(dp420
S'start'
p421
S'3.0'
p422
sS'dim'
p423
I1
sS'end'
p424
S'4.0'
p425
sS'composition'
p426
(lp427
(lp428
S'14'
p429
aS'15'
p430
aa(lp431
S'14'
p432
aS'19'
p433
aa(lp434
S'19'
p435
aS'20'
p436
aa(lp437
S'15'
p438
aS'20'
p439
aasbag2
(g3
g4
Ntp440
Rp441
(dp442
S'start'
p443
S'2.0'
p444
sS'dim'
p445
I1
sS'end'
p446
S'4.0'
p447
sS'composition'
p448
(lp449
(lp450
S'19'
p451
aS'24'
p452
aa(lp453
S'13'
p454
aS'14'
p455
aa(lp456
S'18'
p457
aS'23'
p458
aa(lp459
S'14'
p460
aS'19'
p461
aa(lp462
S'13'
p463
aS'18'
p464
aa(lp465
S'23'
p466
aS'24'
p467
aasbag2
(g3
g4
Ntp468
Rp469
(dp470
S'start'
p471
S'3.0'
p472
sS'dim'
p473
I1
sS'end'
p474
S'4.0'
p475
sS'composition'
p476
(lp477
(lp478
S'19'
p479
aS'24'
p480
aa(lp481
S'24'
p482
aS'25'
p483
aa(lp484
S'9'
p485
aS'14'
p486
aa(lp487
S'14'
p488
aS'19'
p489
aa(lp490
S'9'
p491
aS'15'
p492
aa(lp493
S'15'
p494
aS'20'
p495
aa(lp496
S'20'
p497
aS'25'
p498
aasbag2
(g3
g4
Ntp499
Rp500
(dp501
S'start'
p502
S'2.0'
p503
sS'dim'
p504
I1
sS'end'
p505
S'4.0'
p506
sS'composition'
p507
(lp508
(lp509
S'24'
p510
aS'25'
p511
aa(lp512
S'27'
p513
aS'30'
p514
aa(lp515
S'25'
p516
aS'31'
p517
aa(lp518
S'23'
p519
aS'30'
p520
aa(lp521
S'27'
p522
aS'28'
p523
aa(lp524
S'23'
p525
aS'24'
p526
aa(lp527
S'29'
p528
aS'31'
p529
aa(lp530
S'28'
p531
aS'29'
p532
aasbag2
(g3
g4
Ntp533
Rp534
(dp535
S'start'
p536
S'6.0'
p537
sS'dim'
p538
I1
sS'end'
p539
S'7.0'
p540
sS'composition'
p541
(lp542
(lp543
S'0'
p544
aS'1'
p545
aa(lp546
S'1'
p547
aS'5'
p548
aa(lp549
S'0'
p550
aS'3'
p551
aa(lp552
S'3'
p553
aS'5'
p554
aasbag2
(g3
g4
Ntp555
Rp556
(dp557
S'start'
p558
S'6.0'
p559
sS'dim'
p560
I1
sS'end'
p561
S'7.0'
p562
sS'composition'
p563
(lp564
(lp565
S'3'
p566
aS'7'
p567
aa(lp568
S'7'
p569
aS'12'
p570
aa(lp571
S'12'
p572
aS'13'
p573
aa(lp574
S'3'
p575
aS'13'
p576
aasbag2
(g3
g4
Ntp577
Rp578
(dp579
S'start'
p580
S'6.0'
p581
sS'dim'
p582
I1
sS'end'
p583
S'7.0'
p584
sS'composition'
p585
(lp586
(lp587
S'12'
p588
aS'17'
p589
aa(lp590
S'13'
p591
aS'18'
p592
aa(lp593
S'12'
p594
aS'13'
p595
aa(lp596
S'17'
p597
aS'18'
p598
aasbag2
(g3
g4
Ntp599
Rp600
(dp601
S'start'
p602
S'5.0'
p603
sS'dim'
p604
I1
sS'end'
p605
S'7.0'
p606
sS'composition'
p607
(lp608
(lp609
S'12'
p610
aS'17'
p611
aa(lp612
S'2'
p613
aS'3'
p614
aa(lp615
S'7'
p616
aS'8'
p617
aa(lp618
S'18'
p619
aS'23'
p620
aa(lp621
S'7'
p622
aS'12'
p623
aa(lp624
S'17'
p625
aS'22'
p626
aa(lp627
S'13'
p628
aS'18'
p629
aa(lp630
S'3'
p631
aS'13'
p632
aa(lp633
S'22'
p634
aS'23'
p635
aa(lp636
S'2'
p637
aS'8'
p638
aasbag2
(g3
g4
Ntp639
Rp640
(dp641
S'start'
p642
S'8.0'
p643
sS'dim'
p644
I1
sS'end'
p645
S'9.0'
p646
sS'composition'
p647
(lp648
(lp649
S'5'
p650
aS'6'
p651
aa(lp652
S'5'
p653
aS'15'
p654
aa(lp655
S'6'
p656
aS'16'
p657
aa(lp658
S'15'
p659
aS'16'
p660
aasbag2
(g3
g4
Ntp661
Rp662
(dp663
S'start'
p664
S'9.0'
p665
sS'dim'
p666
I1
sS'end'
p667
S'10.0'
p668
sS'composition'
p669
(lp670
(lp671
S'16'
p672
aS'20'
p673
aa(lp674
S'21'
p675
aS'25'
p676
aa(lp677
S'16'
p678
aS'21'
p679
aa(lp680
S'20'
p681
aS'25'
p682
aasbas.