(dp0
I0
(lp1
ccopy_reg
_reconstructor
p2
(cHoles
Cycle
p3
c__builtin__
object
p4
Ntp5
Rp6
(dp7
S'start'
p8
S'0.0'
p9
sS'dim'
p10
I0
sS'end'
p11
S'1.0'
p12
sS'composition'
p13
(lp14
(lp15
S'4'
p16
aa(lp17
S'9'
p18
aasbag2
(g3
g4
Ntp19
Rp20
(dp21
S'start'
p22
S'0.0'
p23
sS'dim'
p24
I0
sS'end'
p25
S'1.0'
p26
sS'composition'
p27
(lp28
(lp29
S'14'
p30
aa(lp31
S'9'
p32
aasbag2
(g3
g4
Ntp33
Rp34
(dp35
S'start'
p36
S'0.0'
p37
sS'dim'
p38
I0
sS'end'
p39
S'1.0'
p40
sS'composition'
p41
(lp42
(lp43
S'23'
p44
aa(lp45
S'18'
p46
aasbag2
(g3
g4
Ntp47
Rp48
(dp49
S'start'
p50
S'0.0'
p51
sS'dim'
p52
I0
sS'end'
p53
S'1.0'
p54
sS'composition'
p55
(lp56
(lp57
S'27'
p58
aa(lp59
S'23'
p60
aasbag2
(g3
g4
Ntp61
Rp62
(dp63
S'start'
p64
S'0.0'
p65
sS'dim'
p66
I0
sS'end'
p67
S'1.0'
p68
sS'composition'
p69
(lp70
(lp71
S'25'
p72
aa(lp73
S'23'
p74
aasbag2
(g3
g4
Ntp75
Rp76
(dp77
S'start'
p78
S'0.0'
p79
sS'dim'
p80
I0
sS'end'
p81
S'2.0'
p82
sS'composition'
p83
(lp84
(lp85
S'4'
p86
aa(lp87
S'0'
p88
aasbag2
(g3
g4
Ntp89
Rp90
(dp91
S'start'
p92
S'0.0'
p93
sS'dim'
p94
I0
sS'end'
p95
S'2.0'
p96
sS'composition'
p97
(lp98
(lp99
S'4'
p100
aa(lp101
S'5'
p102
aasbag2
(g3
g4
Ntp103
Rp104
(dp105
S'start'
p106
S'0.0'
p107
sS'dim'
p108
I0
sS'end'
p109
S'2.0'
p110
sS'composition'
p111
(lp112
(lp113
S'10'
p114
aa(lp115
S'5'
p116
aasbag2
(g3
g4
Ntp117
Rp118
(dp119
S'start'
p120
S'0.0'
p121
sS'dim'
p122
I0
sS'end'
p123
S'2.0'
p124
sS'composition'
p125
(lp126
(lp127
S'18'
p128
aa(lp129
S'13'
p130
aasbag2
(g3
g4
Ntp131
Rp132
(dp133
S'start'
p134
S'0.0'
p135
sS'dim'
p136
I0
sS'end'
p137
S'2.0'
p138
sS'composition'
p139
(lp140
(lp141
S'19'
p142
aa(lp143
S'14'
p144
aasbag2
(g3
g4
Ntp145
Rp146
(dp147
S'start'
p148
S'0.0'
p149
sS'dim'
p150
I0
sS'end'
p151
S'2.0'
p152
sS'composition'
p153
(lp154
(lp155
S'20'
p156
aa(lp157
S'15'
p158
aasbag2
(g3
g4
Ntp159
Rp160
(dp161
S'start'
p162
S'0.0'
p163
sS'dim'
p164
I0
sS'end'
p165
S'2.0'
p166
sS'composition'
p167
(lp168
(lp169
S'15'
p170
aa(lp171
S'13'
p172
aasbag2
(g3
g4
Ntp173
Rp174
(dp175
S'start'
p176
S'0.0'
p177
sS'dim'
p178
I0
sS'end'
p179
S'3.0'
p180
sS'composition'
p181
(lp182
(lp183
S'0'
p184
aa(lp185
S'1'
p186
aasbag2
(g3
g4
Ntp187
Rp188
(dp189
S'start'
p190
S'0.0'
p191
sS'dim'
p192
I0
sS'end'
p193
S'3.0'
p194
sS'composition'
p195
(lp196
(lp197
S'3'
p198
aa(lp199
S'0'
p200
aasbag2
(g3
g4
Ntp201
Rp202
(dp203
S'start'
p204
S'0.0'
p205
sS'dim'
p206
I0
sS'end'
p207
S'3.0'
p208
sS'composition'
p209
(lp210
(lp211
S'8'
p212
aa(lp213
S'3'
p214
aasbag2
(g3
g4
Ntp215
Rp216
(dp217
S'start'
p218
S'0.0'
p219
sS'dim'
p220
I0
sS'end'
p221
S'3.0'
p222
sS'composition'
p223
(lp224
(lp225
S'8'
p226
aa(lp227
S'13'
p228
aasbag2
(g3
g4
Ntp229
Rp230
(dp231
S'start'
p232
S'0.0'
p233
sS'dim'
p234
I0
sS'end'
p235
S'4.0'
p236
sS'composition'
p237
(lp238
(lp239
S'2'
p240
aa(lp241
S'0'
p242
aasbag2
(g3
g4
Ntp243
Rp244
(dp245
S'start'
p246
S'0.0'
p247
sS'dim'
p248
I0
sS'end'
p249
S'4.0'
p250
sS'composition'
p251
(lp252
(lp253
S'7'
p254
aa(lp255
S'2'
p256
aasbag2
(g3
g4
Ntp257
Rp258
(dp259
S'start'
p260
S'0.0'
p261
sS'dim'
p262
I0
sS'end'
p263
S'4.0'
p264
sS'composition'
p265
(lp266
(lp267
S'6'
p268
aa(lp269
S'11'
p270
aasbag2
(g3
g4
Ntp271
Rp272
(dp273
S'start'
p274
S'0.0'
p275
sS'dim'
p276
I0
sS'end'
p277
S'4.0'
p278
sS'composition'
p279
(lp280
(lp281
S'12'
p282
aa(lp283
S'7'
p284
aasbag2
(g3
g4
Ntp285
Rp286
(dp287
S'start'
p288
S'0.0'
p289
sS'dim'
p290
I0
sS'end'
p291
S'4.0'
p292
sS'composition'
p293
(lp294
(lp295
S'16'
p296
aa(lp297
S'21'
p298
aasbag2
(g3
g4
Ntp299
Rp300
(dp301
S'start'
p302
S'0.0'
p303
sS'dim'
p304
I0
sS'end'
p305
S'4.0'
p306
sS'composition'
p307
(lp308
(lp309
S'21'
p310
aa(lp311
S'26'
p312
aasbag2
(g3
g4
Ntp313
Rp314
(dp315
S'start'
p316
S'0.0'
p317
sS'dim'
p318
I0
sS'end'
p319
S'4.0'
p320
sS'composition'
p321
(lp322
(lp323
S'16'
p324
aa(lp325
S'13'
p326
aasbag2
(g3
g4
Ntp327
Rp328
(dp329
S'start'
p330
S'0.0'
p331
sS'dim'
p332
I0
sS'end'
p333
S'5.0'
p334
sS'composition'
p335
(lp336
(lp337
S'6'
p338
aa(lp339
S'5'
p340
aasbag2
(g3
g4
Ntp341
Rp342
(dp343
S'start'
p344
S'0.0'
p345
sS'dim'
p346
I0
sS'end'
p347
S'5.0'
p348
sS'composition'
p349
(lp350
(lp351
S'17'
p352
aa(lp353
S'22'
p354
aasbag2
(g3
g4
Ntp355
Rp356
(dp357
S'start'
p358
S'0.0'
p359
sS'dim'
p360
I0
sS'end'
p361
S'6.0'
p362
sS'composition'
p363
(lp364
(lp365
S'12'
p366
aa(lp367
S'17'
p368
aasbag2
(g3
g4
Ntp369
Rp370
(dp371
S'start'
p372
S'0.0'
p373
sS'dim'
p374
I0
sS'end'
p375
S'26'
p376
sS'composition'
p377
(lp378
(lp379
S'0'
p380
aasbasI1
(lp381
g2
(g3
g4
Ntp382
Rp383
(dp384
S'start'
p385
S'3.0'
p386
sS'dim'
p387
I1
sS'end'
p388
S'4.0'
p389
sS'composition'
p390
(lp391
(lp392
S'28'
p393
aS'31'
p394
aa(lp395
S'23'
p396
aS'27'
p397
aa(lp398
S'24'
p399
aS'31'
p400
aa(lp401
S'27'
p402
aS'28'
p403
aa(lp404
S'23'
p405
aS'24'
p406
aasbag2
(g3
g4
Ntp407
Rp408
(dp409
S'start'
p410
S'3.0'
p411
sS'dim'
p412
I1
sS'end'
p413
S'5.0'
p414
sS'composition'
p415
(lp416
(lp417
S'18'
p418
aS'19'
p419
aa(lp420
S'9'
p421
aS'14'
p422
aa(lp423
S'14'
p424
aS'19'
p425
aa(lp426
S'8'
p427
aS'9'
p428
aa(lp429
S'13'
p430
aS'18'
p431
aa(lp432
S'8'
p433
aS'13'
p434
aasbag2
(g3
g4
Ntp435
Rp436
(dp437
S'start'
p438
S'3.0'
p439
sS'dim'
p440
I1
sS'end'
p441
S'5.0'
p442
sS'composition'
p443
(lp444
(lp445
S'18'
p446
aS'23'
p447
aa(lp448
S'15'
p449
aS'20'
p450
aa(lp451
S'25'
p452
aS'31'
p453
aa(lp454
S'4'
p455
aS'14'
p456
aa(lp457
S'8'
p458
aS'9'
p459
aa(lp460
S'23'
p461
aS'27'
p462
aa(lp463
S'8'
p464
aS'13'
p465
aa(lp466
S'20'
p467
aS'25'
p468
aa(lp469
S'10'
p470
aS'15'
p471
aa(lp472
S'28'
p473
aS'31'
p474
aa(lp475
S'13'
p476
aS'18'
p477
aa(lp478
S'5'
p479
aS'10'
p480
aa(lp481
S'27'
p482
aS'28'
p483
aa(lp484
S'9'
p485
aS'14'
p486
aa(lp487
S'4'
p488
aS'5'
p489
aasbag2
(g3
g4
Ntp490
Rp491
(dp492
S'start'
p493
S'6.0'
p494
sS'dim'
p495
I1
sS'end'
p496
S'7.0'
p497
sS'composition'
p498
(lp499
(lp500
S'21'
p501
aS'26'
p502
aa(lp503
S'15'
p504
aS'20'
p505
aa(lp506
S'15'
p507
aS'16'
p508
aa(lp509
S'25'
p510
aS'26'
p511
aa(lp512
S'16'
p513
aS'21'
p514
aa(lp515
S'20'
p516
aS'25'
p517
aasbag2
(g3
g4
Ntp518
Rp519
(dp520
S'start'
p521
S'5.0'
p522
sS'dim'
p523
I1
sS'end'
p524
S'8.0'
p525
sS'composition'
p526
(lp527
(lp528
S'6'
p529
aS'11'
p530
aa(lp531
S'11'
p532
aS'16'
p533
aa(lp534
S'21'
p535
aS'26'
p536
aa(lp537
S'5'
p538
aS'6'
p539
aa(lp540
S'15'
p541
aS'20'
p542
aa(lp543
S'5'
p544
aS'15'
p545
aa(lp546
S'20'
p547
aS'25'
p548
aa(lp549
S'16'
p550
aS'21'
p551
aa(lp552
S'25'
p553
aS'26'
p554
aasbag2
(g3
g4
Ntp555
Rp556
(dp557
S'start'
p558
S'6.0'
p559
sS'dim'
p560
I1
sS'end'
p561
S'9.0'
p562
sS'composition'
p563
(lp564
(lp565
S'18'
p566
aS'22'
p567
aa(lp568
S'12'
p569
aS'17'
p570
aa(lp571
S'17'
p572
aS'22'
p573
aa(lp574
S'8'
p575
aS'18'
p576
aa(lp577
S'8'
p578
aS'12'
p579
aasbas.