(dp0
I0
(lp1
ccopy_reg
_reconstructor
p2
(cHoles
Cycle
p3
c__builtin__
object
p4
Ntp5
Rp6
(dp7
S'start'
p8
S'0.0'
p9
sS'dim'
p10
I0
sS'end'
p11
S'1.0'
p12
sS'composition'
p13
(lp14
(lp15
S'4'
p16
aa(lp17
S'5'
p18
aasbag2
(g3
g4
Ntp19
Rp20
(dp21
S'start'
p22
S'0.0'
p23
sS'dim'
p24
I0
sS'end'
p25
S'1.0'
p26
sS'composition'
p27
(lp28
(lp29
S'4'
p30
aa(lp31
S'9'
p32
aasbag2
(g3
g4
Ntp33
Rp34
(dp35
S'start'
p36
S'0.0'
p37
sS'dim'
p38
I0
sS'end'
p39
S'1.0'
p40
sS'composition'
p41
(lp42
(lp43
S'30'
p44
aa(lp45
S'23'
p46
aasbag2
(g3
g4
Ntp47
Rp48
(dp49
S'start'
p50
S'0.0'
p51
sS'dim'
p52
I0
sS'end'
p53
S'1.0'
p54
sS'composition'
p55
(lp56
(lp57
S'28'
p58
aa(lp59
S'27'
p60
aasbag2
(g3
g4
Ntp61
Rp62
(dp63
S'start'
p64
S'0.0'
p65
sS'dim'
p66
I0
sS'end'
p67
S'1.0'
p68
sS'composition'
p69
(lp70
(lp71
S'29'
p72
aa(lp73
S'28'
p74
aasbag2
(g3
g4
Ntp75
Rp76
(dp77
S'start'
p78
S'0.0'
p79
sS'dim'
p80
I0
sS'end'
p81
S'1.0'
p82
sS'composition'
p83
(lp84
(lp85
S'25'
p86
aa(lp87
S'27'
p88
aasbag2
(g3
g4
Ntp89
Rp90
(dp91
S'start'
p92
S'0.0'
p93
sS'dim'
p94
I0
sS'end'
p95
S'2.0'
p96
sS'composition'
p97
(lp98
(lp99
S'8'
p100
aa(lp101
S'3'
p102
aasbag2
(g3
g4
Ntp103
Rp104
(dp105
S'start'
p106
S'0.0'
p107
sS'dim'
p108
I0
sS'end'
p109
S'2.0'
p110
sS'composition'
p111
(lp112
(lp113
S'8'
p114
aa(lp115
S'13'
p116
aasbag2
(g3
g4
Ntp117
Rp118
(dp119
S'start'
p120
S'0.0'
p121
sS'dim'
p122
I0
sS'end'
p123
S'2.0'
p124
sS'composition'
p125
(lp126
(lp127
S'14'
p128
aa(lp129
S'15'
p130
aasbag2
(g3
g4
Ntp131
Rp132
(dp133
S'start'
p134
S'0.0'
p135
sS'dim'
p136
I0
sS'end'
p137
S'2.0'
p138
sS'composition'
p139
(lp140
(lp141
S'20'
p142
aa(lp143
S'25'
p144
aasbag2
(g3
g4
Ntp145
Rp146
(dp147
S'start'
p148
S'0.0'
p149
sS'dim'
p150
I0
sS'end'
p151
S'2.0'
p152
sS'composition'
p153
(lp154
(lp155
S'4'
p156
aa(lp157
S'3'
p158
aasbag2
(g3
g4
Ntp159
Rp160
(dp161
S'start'
p162
S'0.0'
p163
sS'dim'
p164
I0
sS'end'
p165
S'3.0'
p166
sS'composition'
p167
(lp168
(lp169
S'25'
p170
aa(lp171
S'26'
p172
aasbag2
(g3
g4
Ntp173
Rp174
(dp175
S'start'
p176
S'0.0'
p177
sS'dim'
p178
I0
sS'end'
p179
S'4.0'
p180
sS'composition'
p181
(lp182
(lp183
S'3'
p184
aa(lp185
S'1'
p186
aasbag2
(g3
g4
Ntp187
Rp188
(dp189
S'start'
p190
S'0.0'
p191
sS'dim'
p192
I0
sS'end'
p193
S'4.0'
p194
sS'composition'
p195
(lp196
(lp197
S'6'
p198
aa(lp199
S'5'
p200
aasbag2
(g3
g4
Ntp201
Rp202
(dp203
S'start'
p204
S'0.0'
p205
sS'dim'
p206
I0
sS'end'
p207
S'5.0'
p208
sS'composition'
p209
(lp210
(lp211
S'1'
p212
aa(lp213
S'0'
p214
aasbag2
(g3
g4
Ntp215
Rp216
(dp217
S'start'
p218
S'0.0'
p219
sS'dim'
p220
I0
sS'end'
p221
S'5.0'
p222
sS'composition'
p223
(lp224
(lp225
S'6'
p226
aa(lp227
S'11'
p228
aasbag2
(g3
g4
Ntp229
Rp230
(dp231
S'start'
p232
S'0.0'
p233
sS'dim'
p234
I0
sS'end'
p235
S'5.0'
p236
sS'composition'
p237
(lp238
(lp239
S'10'
p240
aa(lp241
S'9'
p242
aasbag2
(g3
g4
Ntp243
Rp244
(dp245
S'start'
p246
S'0.0'
p247
sS'dim'
p248
I0
sS'end'
p249
S'5.0'
p250
sS'composition'
p251
(lp252
(lp253
S'18'
p254
aa(lp255
S'22'
p256
aasbag2
(g3
g4
Ntp257
Rp258
(dp259
S'start'
p260
S'0.0'
p261
sS'dim'
p262
I0
sS'end'
p263
S'6.0'
p264
sS'composition'
p265
(lp266
(lp267
S'12'
p268
aa(lp269
S'7'
p270
aasbag2
(g3
g4
Ntp271
Rp272
(dp273
S'start'
p274
S'0.0'
p275
sS'dim'
p276
I0
sS'end'
p277
S'6.0'
p278
sS'composition'
p279
(lp280
(lp281
S'16'
p282
aa(lp283
S'11'
p284
aasbag2
(g3
g4
Ntp285
Rp286
(dp287
S'start'
p288
S'0.0'
p289
sS'dim'
p290
I0
sS'end'
p291
S'6.0'
p292
sS'composition'
p293
(lp294
(lp295
S'12'
p296
aa(lp297
S'17'
p298
aasbag2
(g3
g4
Ntp299
Rp300
(dp301
S'start'
p302
S'0.0'
p303
sS'dim'
p304
I0
sS'end'
p305
S'6.0'
p306
sS'composition'
p307
(lp308
(lp309
S'7'
p310
aa(lp311
S'3'
p312
aasbag2
(g3
g4
Ntp313
Rp314
(dp315
S'start'
p316
S'0.0'
p317
sS'dim'
p318
I0
sS'end'
p319
S'7.0'
p320
sS'composition'
p321
(lp322
(lp323
S'2'
p324
aa(lp325
S'1'
p326
aasbag2
(g3
g4
Ntp327
Rp328
(dp329
S'start'
p330
S'0.0'
p331
sS'dim'
p332
I0
sS'end'
p333
S'7.0'
p334
sS'composition'
p335
(lp336
(lp337
S'20'
p338
aa(lp339
S'21'
p340
aasbag2
(g3
g4
Ntp341
Rp342
(dp343
S'start'
p344
S'0.0'
p345
sS'dim'
p346
I0
sS'end'
p347
S'31'
p348
sS'composition'
p349
(lp350
(lp351
S'0'
p352
aasbasI1
(lp353
g2
(g3
g4
Ntp354
Rp355
(dp356
S'start'
p357
S'2.0'
p358
sS'dim'
p359
I1
sS'end'
p360
S'3.0'
p361
sS'composition'
p362
(lp363
(lp364
S'14'
p365
aS'15'
p366
aa(lp367
S'14'
p368
aS'19'
p369
aa(lp370
S'19'
p371
aS'20'
p372
aa(lp373
S'15'
p374
aS'20'
p375
aasbag2
(g3
g4
Ntp376
Rp377
(dp378
S'start'
p379
S'2.0'
p380
sS'dim'
p381
I1
sS'end'
p382
S'3.0'
p383
sS'composition'
p384
(lp385
(lp386
S'19'
p387
aS'24'
p388
aa(lp389
S'24'
p390
aS'25'
p391
aa(lp392
S'14'
p393
aS'19'
p394
aa(lp395
S'15'
p396
aS'20'
p397
aa(lp398
S'20'
p399
aS'25'
p400
aa(lp401
S'14'
p402
aS'15'
p403
aasbag2
(g3
g4
Ntp404
Rp405
(dp406
S'start'
p407
S'3.0'
p408
sS'dim'
p409
I1
sS'end'
p410
S'4.0'
p411
sS'composition'
p412
(lp413
(lp414
S'19'
p415
aS'24'
p416
aa(lp417
S'13'
p418
aS'14'
p419
aa(lp420
S'18'
p421
aS'23'
p422
aa(lp423
S'14'
p424
aS'19'
p425
aa(lp426
S'13'
p427
aS'18'
p428
aa(lp429
S'23'
p430
aS'24'
p431
aasbag2
(g3
g4
Ntp432
Rp433
(dp434
S'start'
p435
S'2.0'
p436
sS'dim'
p437
I1
sS'end'
p438
S'4.0'
p439
sS'composition'
p440
(lp441
(lp442
S'24'
p443
aS'30'
p444
aa(lp445
S'24'
p446
aS'25'
p447
aa(lp448
S'27'
p449
aS'30'
p450
aa(lp451
S'25'
p452
aS'31'
p453
aa(lp454
S'28'
p455
aS'29'
p456
aa(lp457
S'27'
p458
aS'28'
p459
aa(lp460
S'29'
p461
aS'31'
p462
aasbag2
(g3
g4
Ntp463
Rp464
(dp465
S'start'
p466
S'3.0'
p467
sS'dim'
p468
I1
sS'end'
p469
S'5.0'
p470
sS'composition'
p471
(lp472
(lp473
S'19'
p474
aS'24'
p475
aa(lp476
S'3'
p477
aS'8'
p478
aa(lp479
S'9'
p480
aS'14'
p481
aa(lp482
S'18'
p483
aS'23'
p484
aa(lp485
S'14'
p486
aS'19'
p487
aa(lp488
S'4'
p489
aS'9'
p490
aa(lp491
S'13'
p492
aS'18'
p493
aa(lp494
S'23'
p495
aS'24'
p496
aa(lp497
S'3'
p498
aS'4'
p499
aa(lp500
S'8'
p501
aS'13'
p502
aasbag2
(g3
g4
Ntp503
Rp504
(dp505
S'start'
p506
S'7.0'
p507
sS'dim'
p508
I1
sS'end'
p509
S'9.0'
p510
sS'composition'
p511
(lp512
(lp513
S'22'
p514
aS'23'
p515
aa(lp516
S'17'
p517
aS'22'
p518
aa(lp519
S'12'
p520
aS'17'
p521
aa(lp522
S'12'
p523
aS'13'
p524
aa(lp525
S'8'
p526
aS'18'
p527
aa(lp528
S'18'
p529
aS'23'
p530
aa(lp531
S'8'
p532
aS'13'
p533
aasbas.