(dp0
I0
(lp1
ccopy_reg
_reconstructor
p2
(cHoles
Cycle
p3
c__builtin__
object
p4
Ntp5
Rp6
(dp7
S'start'
p8
S'0.0'
p9
sS'dim'
p10
I0
sS'end'
p11
S'1.0'
p12
sS'composition'
p13
(lp14
(lp15
S'18'
p16
aa(lp17
S'13'
p18
aasbag2
(g3
g4
Ntp19
Rp20
(dp21
S'start'
p22
S'0.0'
p23
sS'dim'
p24
I0
sS'end'
p25
S'1.0'
p26
sS'composition'
p27
(lp28
(lp29
S'28'
p30
aa(lp31
S'27'
p32
aasbag2
(g3
g4
Ntp33
Rp34
(dp35
S'start'
p36
S'0.0'
p37
sS'dim'
p38
I0
sS'end'
p39
S'2.0'
p40
sS'composition'
p41
(lp42
(lp43
S'8'
p44
aa(lp45
S'3'
p46
aasbag2
(g3
g4
Ntp47
Rp48
(dp49
S'start'
p50
S'0.0'
p51
sS'dim'
p52
I0
sS'end'
p53
S'2.0'
p54
sS'composition'
p55
(lp56
(lp57
S'4'
p58
aa(lp59
S'5'
p60
aasbag2
(g3
g4
Ntp61
Rp62
(dp63
S'start'
p64
S'0.0'
p65
sS'dim'
p66
I0
sS'end'
p67
S'2.0'
p68
sS'composition'
p69
(lp70
(lp71
S'10'
p72
aa(lp73
S'5'
p74
aasbag2
(g3
g4
Ntp75
Rp76
(dp77
S'start'
p78
S'0.0'
p79
sS'dim'
p80
I0
sS'end'
p81
S'2.0'
p82
sS'composition'
p83
(lp84
(lp85
S'8'
p86
aa(lp87
S'13'
p88
aasbag2
(g3
g4
Ntp89
Rp90
(dp91
S'start'
p92
S'0.0'
p93
sS'dim'
p94
I0
sS'end'
p95
S'2.0'
p96
sS'composition'
p97
(lp98
(lp99
S'10'
p100
aa(lp101
S'15'
p102
aasbag2
(g3
g4
Ntp103
Rp104
(dp105
S'start'
p106
S'0.0'
p107
sS'dim'
p108
I0
sS'end'
p109
S'2.0'
p110
sS'composition'
p111
(lp112
(lp113
S'19'
p114
aa(lp115
S'14'
p116
aasbag2
(g3
g4
Ntp117
Rp118
(dp119
S'start'
p120
S'0.0'
p121
sS'dim'
p122
I0
sS'end'
p123
S'2.0'
p124
sS'composition'
p125
(lp126
(lp127
S'20'
p128
aa(lp129
S'15'
p130
aasbag2
(g3
g4
Ntp131
Rp132
(dp133
S'start'
p134
S'0.0'
p135
sS'dim'
p136
I0
sS'end'
p137
S'2.0'
p138
sS'composition'
p139
(lp140
(lp141
S'23'
p142
aa(lp143
S'18'
p144
aasbag2
(g3
g4
Ntp145
Rp146
(dp147
S'start'
p148
S'0.0'
p149
sS'dim'
p150
I0
sS'end'
p151
S'2.0'
p152
sS'composition'
p153
(lp154
(lp155
S'19'
p156
aa(lp157
S'24'
p158
aasbag2
(g3
g4
Ntp159
Rp160
(dp161
S'start'
p162
S'0.0'
p163
sS'dim'
p164
I0
sS'end'
p165
S'2.0'
p166
sS'composition'
p167
(lp168
(lp169
S'30'
p170
aa(lp171
S'27'
p172
aasbag2
(g3
g4
Ntp173
Rp174
(dp175
S'start'
p176
S'0.0'
p177
sS'dim'
p178
I0
sS'end'
p179
S'3.0'
p180
sS'composition'
p181
(lp182
(lp183
S'4'
p184
aa(lp185
S'1'
p186
aasbag2
(g3
g4
Ntp187
Rp188
(dp189
S'start'
p190
S'0.0'
p191
sS'dim'
p192
I0
sS'end'
p193
S'3.0'
p194
sS'composition'
p195
(lp196
(lp197
S'3'
p198
aa(lp199
S'1'
p200
aasbag2
(g3
g4
Ntp201
Rp202
(dp203
S'start'
p204
S'0.0'
p205
sS'dim'
p206
I0
sS'end'
p207
S'3.0'
p208
sS'composition'
p209
(lp210
(lp211
S'6'
p212
aa(lp213
S'11'
p214
aasbag2
(g3
g4
Ntp215
Rp216
(dp217
S'start'
p218
S'0.0'
p219
sS'dim'
p220
I0
sS'end'
p221
S'3.0'
p222
sS'composition'
p223
(lp224
(lp225
S'20'
p226
aa(lp227
S'25'
p228
aasbag2
(g3
g4
Ntp229
Rp230
(dp231
S'start'
p232
S'0.0'
p233
sS'dim'
p234
I0
sS'end'
p235
S'3.0'
p236
sS'composition'
p237
(lp238
(lp239
S'25'
p240
aa(lp241
S'31'
p242
aasbag2
(g3
g4
Ntp243
Rp244
(dp245
S'start'
p246
S'0.0'
p247
sS'dim'
p248
I0
sS'end'
p249
S'3.0'
p250
sS'composition'
p251
(lp252
(lp253
S'25'
p254
aa(lp255
S'27'
p256
aasbag2
(g3
g4
Ntp257
Rp258
(dp259
S'start'
p260
S'0.0'
p261
sS'dim'
p262
I0
sS'end'
p263
S'4.0'
p264
sS'composition'
p265
(lp266
(lp267
S'6'
p268
aa(lp269
S'5'
p270
aasbag2
(g3
g4
Ntp271
Rp272
(dp273
S'start'
p274
S'0.0'
p275
sS'dim'
p276
I0
sS'end'
p277
S'5.0'
p278
sS'composition'
p279
(lp280
(lp281
S'1'
p282
aa(lp283
S'0'
p284
aasbag2
(g3
g4
Ntp285
Rp286
(dp287
S'start'
p288
S'0.0'
p289
sS'dim'
p290
I0
sS'end'
p291
S'5.0'
p292
sS'composition'
p293
(lp294
(lp295
S'7'
p296
aa(lp297
S'2'
p298
aasbag2
(g3
g4
Ntp299
Rp300
(dp301
S'start'
p302
S'0.0'
p303
sS'dim'
p304
I0
sS'end'
p305
S'5.0'
p306
sS'composition'
p307
(lp308
(lp309
S'21'
p310
aa(lp311
S'26'
p312
aasbag2
(g3
g4
Ntp313
Rp314
(dp315
S'start'
p316
S'0.0'
p317
sS'dim'
p318
I0
sS'end'
p319
S'5.0'
p320
sS'composition'
p321
(lp322
(lp323
S'20'
p324
aa(lp325
S'21'
p326
aasbag2
(g3
g4
Ntp327
Rp328
(dp329
S'start'
p330
S'0.0'
p331
sS'dim'
p332
I0
sS'end'
p333
S'6.0'
p334
sS'composition'
p335
(lp336
(lp337
S'12'
p338
aa(lp339
S'7'
p340
aasbag2
(g3
g4
Ntp341
Rp342
(dp343
S'start'
p344
S'0.0'
p345
sS'dim'
p346
I0
sS'end'
p347
S'6.0'
p348
sS'composition'
p349
(lp350
(lp351
S'16'
p352
aa(lp353
S'11'
p354
aasbag2
(g3
g4
Ntp355
Rp356
(dp357
S'start'
p358
S'0.0'
p359
sS'dim'
p360
I0
sS'end'
p361
S'6.0'
p362
sS'composition'
p363
(lp364
(lp365
S'17'
p366
aa(lp367
S'22'
p368
aasbag2
(g3
g4
Ntp369
Rp370
(dp371
S'start'
p372
S'0.0'
p373
sS'dim'
p374
I0
sS'end'
p375
S'7.0'
p376
sS'composition'
p377
(lp378
(lp379
S'2'
p380
aa(lp381
S'1'
p382
aasbag2
(g3
g4
Ntp383
Rp384
(dp385
S'start'
p386
S'0.0'
p387
sS'dim'
p388
I0
sS'end'
p389
S'7.0'
p390
sS'composition'
p391
(lp392
(lp393
S'13'
p394
aa(lp395
S'17'
p396
aasbag2
(g3
g4
Ntp397
Rp398
(dp399
S'start'
p400
S'0.0'
p401
sS'dim'
p402
I0
sS'end'
p403
S'31'
p404
sS'composition'
p405
(lp406
(lp407
S'0'
p408
aasbasI1
(lp409
g2
(g3
g4
Ntp410
Rp411
(dp412
S'start'
p413
S'3.0'
p414
sS'dim'
p415
I1
sS'end'
p416
S'4.0'
p417
sS'composition'
p418
(lp419
(lp420
S'13'
p421
aS'14'
p422
aa(lp423
S'3'
p424
aS'8'
p425
aa(lp426
S'9'
p427
aS'14'
p428
aa(lp429
S'4'
p430
aS'9'
p431
aa(lp432
S'3'
p433
aS'4'
p434
aa(lp435
S'8'
p436
aS'13'
p437
aasbag2
(g3
g4
Ntp438
Rp439
(dp440
S'start'
p441
S'2.0'
p442
sS'dim'
p443
I1
sS'end'
p444
S'4.0'
p445
sS'composition'
p446
(lp447
(lp448
S'4'
p449
aS'5'
p450
aa(lp451
S'14'
p452
aS'15'
p453
aa(lp454
S'9'
p455
aS'14'
p456
aa(lp457
S'10'
p458
aS'15'
p459
aa(lp460
S'4'
p461
aS'9'
p462
aa(lp463
S'5'
p464
aS'10'
p465
aasbag2
(g3
g4
Ntp466
Rp467
(dp468
S'start'
p469
S'3.0'
p470
sS'dim'
p471
I1
sS'end'
p472
S'4.0'
p473
sS'composition'
p474
(lp475
(lp476
S'13'
p477
aS'14'
p478
aa(lp479
S'18'
p480
aS'19'
p481
aa(lp482
S'14'
p483
aS'19'
p484
aa(lp485
S'13'
p486
aS'18'
p487
aasbag2
(g3
g4
Ntp488
Rp489
(dp490
S'start'
p491
S'2.0'
p492
sS'dim'
p493
I1
sS'end'
p494
S'4.0'
p495
sS'composition'
p496
(lp497
(lp498
S'14'
p499
aS'15'
p500
aa(lp501
S'14'
p502
aS'19'
p503
aa(lp504
S'19'
p505
aS'20'
p506
aa(lp507
S'15'
p508
aS'20'
p509
aasbag2
(g3
g4
Ntp510
Rp511
(dp512
S'start'
p513
S'4.0'
p514
sS'dim'
p515
I1
sS'end'
p516
S'5.0'
p517
sS'composition'
p518
(lp519
(lp520
S'19'
p521
aS'24'
p522
aa(lp523
S'25'
p524
aS'31'
p525
aa(lp526
S'24'
p527
aS'31'
p528
aa(lp529
S'19'
p530
aS'20'
p531
aa(lp532
S'20'
p533
aS'25'
p534
aasbag2
(g3
g4
Ntp535
Rp536
(dp537
S'start'
p538
S'4.0'
p539
sS'dim'
p540
I1
sS'end'
p541
S'6.0'
p542
sS'composition'
p543
(lp544
(lp545
S'25'
p546
aS'31'
p547
aa(lp548
S'28'
p549
aS'31'
p550
aa(lp551
S'18'
p552
aS'19'
p553
aa(lp554
S'23'
p555
aS'27'
p556
aa(lp557
S'18'
p558
aS'23'
p559
aa(lp560
S'19'
p561
aS'20'
p562
aa(lp563
S'27'
p564
aS'28'
p565
aa(lp566
S'20'
p567
aS'25'
p568
aasbag2
(g3
g4
Ntp569
Rp570
(dp571
S'start'
p572
S'6.0'
p573
sS'dim'
p574
I1
sS'end'
p575
S'7.0'
p576
sS'composition'
p577
(lp578
(lp579
S'1'
p580
aS'4'
p581
aa(lp582
S'0'
p583
aS'3'
p584
aa(lp585
S'3'
p586
aS'4'
p587
aa(lp588
S'0'
p589
aS'1'
p590
aasbag2
(g3
g4
Ntp591
Rp592
(dp593
S'start'
p594
S'7.0'
p595
sS'dim'
p596
I1
sS'end'
p597
S'8.0'
p598
sS'composition'
p599
(lp600
(lp601
S'20'
p602
aS'21'
p603
aa(lp604
S'21'
p605
aS'26'
p606
aa(lp607
S'20'
p608
aS'25'
p609
aa(lp610
S'25'
p611
aS'26'
p612
aasbag2
(g3
g4
Ntp613
Rp614
(dp615
S'start'
p616
S'9.0'
p617
sS'dim'
p618
I1
sS'end'
p619
S'10.0'
p620
sS'composition'
p621
(lp622
(lp623
S'20'
p624
aS'21'
p625
aa(lp626
S'11'
p627
aS'15'
p628
aa(lp629
S'11'
p630
aS'16'
p631
aa(lp632
S'15'
p633
aS'20'
p634
aa(lp635
S'16'
p636
aS'21'
p637
aasbas.