(dp0
I0
(lp1
ccopy_reg
_reconstructor
p2
(cHoles
Cycle
p3
c__builtin__
object
p4
Ntp5
Rp6
(dp7
S'start'
p8
S'0.0'
p9
sS'dim'
p10
I0
sS'end'
p11
S'1.0'
p12
sS'composition'
p13
(lp14
(lp15
S'12'
p16
aa(lp17
S'7'
p18
aasbag2
(g3
g4
Ntp19
Rp20
(dp21
S'start'
p22
S'0.0'
p23
sS'dim'
p24
I0
sS'end'
p25
S'2.0'
p26
sS'composition'
p27
(lp28
(lp29
S'3'
p30
aa(lp31
S'0'
p32
aasbag2
(g3
g4
Ntp33
Rp34
(dp35
S'start'
p36
S'0.0'
p37
sS'dim'
p38
I0
sS'end'
p39
S'2.0'
p40
sS'composition'
p41
(lp42
(lp43
S'14'
p44
aa(lp45
S'15'
p46
aasbag2
(g3
g4
Ntp47
Rp48
(dp49
S'start'
p50
S'0.0'
p51
sS'dim'
p52
I0
sS'end'
p53
S'2.0'
p54
sS'composition'
p55
(lp56
(lp57
S'20'
p58
aa(lp59
S'15'
p60
aasbag2
(g3
g4
Ntp61
Rp62
(dp63
S'start'
p64
S'0.0'
p65
sS'dim'
p66
I0
sS'end'
p67
S'2.0'
p68
sS'composition'
p69
(lp70
(lp71
S'16'
p72
aa(lp73
S'21'
p74
aasbag2
(g3
g4
Ntp75
Rp76
(dp77
S'start'
p78
S'0.0'
p79
sS'dim'
p80
I0
sS'end'
p81
S'2.0'
p82
sS'composition'
p83
(lp84
(lp85
S'19'
p86
aa(lp87
S'24'
p88
aasbag2
(g3
g4
Ntp89
Rp90
(dp91
S'start'
p92
S'0.0'
p93
sS'dim'
p94
I0
sS'end'
p95
S'3.0'
p96
sS'composition'
p97
(lp98
(lp99
S'7'
p100
aa(lp101
S'2'
p102
aasbag2
(g3
g4
Ntp103
Rp104
(dp105
S'start'
p106
S'0.0'
p107
sS'dim'
p108
I0
sS'end'
p109
S'3.0'
p110
sS'composition'
p111
(lp112
(lp113
S'13'
p114
aa(lp115
S'9'
p116
aasbag2
(g3
g4
Ntp117
Rp118
(dp119
S'start'
p120
S'0.0'
p121
sS'dim'
p122
I0
sS'end'
p123
S'3.0'
p124
sS'composition'
p125
(lp126
(lp127
S'19'
p128
aa(lp129
S'14'
p130
aasbag2
(g3
g4
Ntp131
Rp132
(dp133
S'start'
p134
S'0.0'
p135
sS'dim'
p136
I0
sS'end'
p137
S'3.0'
p138
sS'composition'
p139
(lp140
(lp141
S'17'
p142
aa(lp143
S'22'
p144
aasbag2
(g3
g4
Ntp145
Rp146
(dp147
S'start'
p148
S'0.0'
p149
sS'dim'
p150
I0
sS'end'
p151
S'4.0'
p152
sS'composition'
p153
(lp154
(lp155
S'3'
p156
aa(lp157
S'5'
p158
aasbag2
(g3
g4
Ntp159
Rp160
(dp161
S'start'
p162
S'0.0'
p163
sS'dim'
p164
I0
sS'end'
p165
S'4.0'
p166
sS'composition'
p167
(lp168
(lp169
S'5'
p170
aa(lp171
S'11'
p172
aasbag2
(g3
g4
Ntp173
Rp174
(dp175
S'start'
p176
S'0.0'
p177
sS'dim'
p178
I0
sS'end'
p179
S'4.0'
p180
sS'composition'
p181
(lp182
(lp183
S'12'
p184
aa(lp185
S'17'
p186
aasbag2
(g3
g4
Ntp187
Rp188
(dp189
S'start'
p190
S'0.0'
p191
sS'dim'
p192
I0
sS'end'
p193
S'4.0'
p194
sS'composition'
p195
(lp196
(lp197
S'23'
p198
aa(lp199
S'18'
p200
aasbag2
(g3
g4
Ntp201
Rp202
(dp203
S'start'
p204
S'0.0'
p205
sS'dim'
p206
I0
sS'end'
p207
S'4.0'
p208
sS'composition'
p209
(lp210
(lp211
S'29'
p212
aa(lp213
S'25'
p214
aasbag2
(g3
g4
Ntp215
Rp216
(dp217
S'start'
p218
S'0.0'
p219
sS'dim'
p220
I0
sS'end'
p221
S'4.0'
p222
sS'composition'
p223
(lp224
(lp225
S'25'
p226
aa(lp227
S'28'
p228
aasbag2
(g3
g4
Ntp229
Rp230
(dp231
S'start'
p232
S'0.0'
p233
sS'dim'
p234
I0
sS'end'
p235
S'4.0'
p236
sS'composition'
p237
(lp238
(lp239
S'30'
p240
aa(lp241
S'28'
p242
aasbag2
(g3
g4
Ntp243
Rp244
(dp245
S'start'
p246
S'0.0'
p247
sS'dim'
p248
I0
sS'end'
p249
S'5.0'
p250
sS'composition'
p251
(lp252
(lp253
S'2'
p254
aa(lp255
S'0'
p256
aasbag2
(g3
g4
Ntp257
Rp258
(dp259
S'start'
p260
S'0.0'
p261
sS'dim'
p262
I0
sS'end'
p263
S'5.0'
p264
sS'composition'
p265
(lp266
(lp267
S'4'
p268
aa(lp269
S'3'
p270
aasbag2
(g3
g4
Ntp271
Rp272
(dp273
S'start'
p274
S'0.0'
p275
sS'dim'
p276
I0
sS'end'
p277
S'5.0'
p278
sS'composition'
p279
(lp280
(lp281
S'6'
p282
aa(lp283
S'5'
p284
aasbag2
(g3
g4
Ntp285
Rp286
(dp287
S'start'
p288
S'0.0'
p289
sS'dim'
p290
I0
sS'end'
p291
S'5.0'
p292
sS'composition'
p293
(lp294
(lp295
S'8'
p296
aa(lp297
S'4'
p298
aasbag2
(g3
g4
Ntp299
Rp300
(dp301
S'start'
p302
S'0.0'
p303
sS'dim'
p304
I0
sS'end'
p305
S'5.0'
p306
sS'composition'
p307
(lp308
(lp309
S'12'
p310
aa(lp311
S'16'
p312
aasbag2
(g3
g4
Ntp313
Rp314
(dp315
S'start'
p316
S'0.0'
p317
sS'dim'
p318
I0
sS'end'
p319
S'5.0'
p320
sS'composition'
p321
(lp322
(lp323
S'20'
p324
aa(lp325
S'25'
p326
aasbag2
(g3
g4
Ntp327
Rp328
(dp329
S'start'
p330
S'0.0'
p331
sS'dim'
p332
I0
sS'end'
p333
S'6.0'
p334
sS'composition'
p335
(lp336
(lp337
S'10'
p338
aa(lp339
S'9'
p340
aasbag2
(g3
g4
Ntp341
Rp342
(dp343
S'start'
p344
S'0.0'
p345
sS'dim'
p346
I0
sS'end'
p347
S'6.0'
p348
sS'composition'
p349
(lp350
(lp351
S'21'
p352
aa(lp353
S'26'
p354
aasbag2
(g3
g4
Ntp355
Rp356
(dp357
S'start'
p358
S'0.0'
p359
sS'dim'
p360
I0
sS'end'
p361
S'8.0'
p362
sS'composition'
p363
(lp364
(lp365
S'0'
p366
aa(lp367
S'1'
p368
aasbag2
(g3
g4
Ntp369
Rp370
(dp371
S'start'
p372
S'0.0'
p373
sS'dim'
p374
I0
sS'end'
p375
S'9.0'
p376
sS'composition'
p377
(lp378
(lp379
S'25'
p380
aa(lp381
S'27'
p382
aasbag2
(g3
g4
Ntp383
Rp384
(dp385
S'start'
p386
S'0.0'
p387
sS'dim'
p388
I0
sS'end'
p389
S'10.0'
p390
sS'composition'
p391
(lp392
(lp393
S'24'
p394
aa(lp395
S'31'
p396
aasbag2
(g3
g4
Ntp397
Rp398
(dp399
S'start'
p400
S'0.0'
p401
sS'dim'
p402
I0
sS'end'
p403
S'31'
p404
sS'composition'
p405
(lp406
(lp407
S'0'
p408
aasbasI1
(lp409
g2
(g3
g4
Ntp410
Rp411
(dp412
S'start'
p413
S'3.0'
p414
sS'dim'
p415
I1
sS'end'
p416
S'5.0'
p417
sS'composition'
p418
(lp419
(lp420
S'14'
p421
aS'15'
p422
aa(lp423
S'14'
p424
aS'19'
p425
aa(lp426
S'19'
p427
aS'20'
p428
aa(lp429
S'15'
p430
aS'20'
p431
aasbag2
(g3
g4
Ntp432
Rp433
(dp434
S'start'
p435
S'6.0'
p436
sS'dim'
p437
I1
sS'end'
p438
S'8.0'
p439
sS'composition'
p440
(lp441
(lp442
S'4'
p443
aS'5'
p444
aa(lp445
S'3'
p446
aS'8'
p447
aa(lp448
S'4'
p449
aS'9'
p450
aa(lp451
S'3'
p452
aS'5'
p453
aa(lp454
S'9'
p455
aS'13'
p456
aa(lp457
S'8'
p458
aS'13'
p459
aasbag2
(g3
g4
Ntp460
Rp461
(dp462
S'start'
p463
S'5.0'
p464
sS'dim'
p465
I1
sS'end'
p466
S'9.0'
p467
sS'composition'
p468
(lp469
(lp470
S'25'
p471
aS'29'
p472
aa(lp473
S'28'
p474
aS'29'
p475
aa(lp476
S'9'
p477
aS'14'
p478
aa(lp479
S'18'
p480
aS'23'
p481
aa(lp482
S'14'
p483
aS'19'
p484
aa(lp485
S'19'
p486
aS'20'
p487
aa(lp488
S'23'
p489
aS'30'
p490
aa(lp491
S'13'
p492
aS'18'
p493
aa(lp494
S'28'
p495
aS'30'
p496
aa(lp497
S'20'
p498
aS'25'
p499
aa(lp500
S'9'
p501
aS'13'
p502
aasbag2
(g3
g4
Ntp503
Rp504
(dp505
S'start'
p506
S'7.0'
p507
sS'dim'
p508
I1
sS'end'
p509
S'12.0'
p510
sS'composition'
p511
(lp512
(lp513
S'12'
p514
aS'17'
p515
aa(lp516
S'2'
p517
aS'3'
p518
aa(lp519
S'17'
p520
aS'21'
p521
aa(lp522
S'2'
p523
aS'12'
p524
aa(lp525
S'11'
p526
aS'21'
p527
aa(lp528
S'5'
p529
aS'11'
p530
aa(lp531
S'3'
p532
aS'5'
p533
aasbag2
(g3
g4
Ntp534
Rp535
(dp536
S'start'
p537
S'7.0'
p538
sS'dim'
p539
I1
sS'end'
p540
S'16.0'
p541
sS'composition'
p542
(lp543
(lp544
S'5'
p545
aS'11'
p546
aa(lp547
S'4'
p548
aS'5'
p549
aa(lp550
S'25'
p551
aS'28'
p552
aa(lp553
S'21'
p554
aS'26'
p555
aa(lp556
S'26'
p557
aS'28'
p558
aa(lp559
S'19'
p560
aS'20'
p561
aa(lp562
S'11'
p563
aS'21'
p564
aa(lp565
S'20'
p566
aS'25'
p567
aa(lp568
S'4'
p569
aS'19'
p570
aasbag2
(g3
g4
Ntp571
Rp572
(dp573
S'start'
p574
S'15.0'
p575
sS'dim'
p576
I1
sS'end'
p577
S'20.0'
p578
sS'composition'
p579
(lp580
(lp581
S'19'
p582
aS'31'
p583
aa(lp584
S'8'
p585
aS'23'
p586
aa(lp587
S'2'
p588
aS'12'
p589
aa(lp590
S'7'
p591
aS'31'
p592
aa(lp593
S'3'
p594
aS'12'
p595
aa(lp596
S'2'
p597
aS'7'
p598
aa(lp599
S'19'
p600
aS'23'
p601
aa(lp602
S'3'
p603
aS'8'
p604
aasbas.