(dp0
I0
(lp1
ccopy_reg
_reconstructor
p2
(cHoles
Cycle
p3
c__builtin__
object
p4
Ntp5
Rp6
(dp7
S'start'
p8
S'0.0'
p9
sS'dim'
p10
I0
sS'end'
p11
S'1.0'
p12
sS'composition'
p13
(lp14
(lp15
S'7'
p16
aa(lp17
S'2'
p18
aasbag2
(g3
g4
Ntp19
Rp20
(dp21
S'start'
p22
S'0.0'
p23
sS'dim'
p24
I0
sS'end'
p25
S'1.0'
p26
sS'composition'
p27
(lp28
(lp29
S'4'
p30
aa(lp31
S'9'
p32
aasbag2
(g3
g4
Ntp33
Rp34
(dp35
S'start'
p36
S'0.0'
p37
sS'dim'
p38
I0
sS'end'
p39
S'1.0'
p40
sS'composition'
p41
(lp42
(lp43
S'28'
p44
aa(lp45
S'31'
p46
aasbag2
(g3
g4
Ntp47
Rp48
(dp49
S'start'
p50
S'0.0'
p51
sS'dim'
p52
I0
sS'end'
p53
S'2.0'
p54
sS'composition'
p55
(lp56
(lp57
S'8'
p58
aa(lp59
S'13'
p60
aasbag2
(g3
g4
Ntp61
Rp62
(dp63
S'start'
p64
S'0.0'
p65
sS'dim'
p66
I0
sS'end'
p67
S'2.0'
p68
sS'composition'
p69
(lp70
(lp71
S'23'
p72
aa(lp73
S'18'
p74
aasbag2
(g3
g4
Ntp75
Rp76
(dp77
S'start'
p78
S'0.0'
p79
sS'dim'
p80
I0
sS'end'
p81
S'2.0'
p82
sS'composition'
p83
(lp84
(lp85
S'19'
p86
aa(lp87
S'24'
p88
aasbag2
(g3
g4
Ntp89
Rp90
(dp91
S'start'
p92
S'0.0'
p93
sS'dim'
p94
I0
sS'end'
p95
S'2.0'
p96
sS'composition'
p97
(lp98
(lp99
S'27'
p100
aa(lp101
S'23'
p102
aasbag2
(g3
g4
Ntp103
Rp104
(dp105
S'start'
p106
S'0.0'
p107
sS'dim'
p108
I0
sS'end'
p109
S'3.0'
p110
sS'composition'
p111
(lp112
(lp113
S'8'
p114
aa(lp115
S'3'
p116
aasbag2
(g3
g4
Ntp117
Rp118
(dp119
S'start'
p120
S'0.0'
p121
sS'dim'
p122
I0
sS'end'
p123
S'3.0'
p124
sS'composition'
p125
(lp126
(lp127
S'8'
p128
aa(lp129
S'12'
p130
aasbag2
(g3
g4
Ntp131
Rp132
(dp133
S'start'
p134
S'0.0'
p135
sS'dim'
p136
I0
sS'end'
p137
S'3.0'
p138
sS'composition'
p139
(lp140
(lp141
S'25'
p142
aa(lp143
S'23'
p144
aasbag2
(g3
g4
Ntp145
Rp146
(dp147
S'start'
p148
S'0.0'
p149
sS'dim'
p150
I0
sS'end'
p151
S'4.0'
p152
sS'composition'
p153
(lp154
(lp155
S'4'
p156
aa(lp157
S'0'
p158
aasbag2
(g3
g4
Ntp159
Rp160
(dp161
S'start'
p162
S'0.0'
p163
sS'dim'
p164
I0
sS'end'
p165
S'4.0'
p166
sS'composition'
p167
(lp168
(lp169
S'2'
p170
aa(lp171
S'3'
p172
aasbag2
(g3
g4
Ntp173
Rp174
(dp175
S'start'
p176
S'0.0'
p177
sS'dim'
p178
I0
sS'end'
p179
S'4.0'
p180
sS'composition'
p181
(lp182
(lp183
S'14'
p184
aa(lp185
S'9'
p186
aasbag2
(g3
g4
Ntp187
Rp188
(dp189
S'start'
p190
S'0.0'
p191
sS'dim'
p192
I0
sS'end'
p193
S'4.0'
p194
sS'composition'
p195
(lp196
(lp197
S'12'
p198
aa(lp199
S'17'
p200
aasbag2
(g3
g4
Ntp201
Rp202
(dp203
S'start'
p204
S'0.0'
p205
sS'dim'
p206
I0
sS'end'
p207
S'4.0'
p208
sS'composition'
p209
(lp210
(lp211
S'19'
p212
aa(lp213
S'14'
p214
aasbag2
(g3
g4
Ntp215
Rp216
(dp217
S'start'
p218
S'0.0'
p219
sS'dim'
p220
I0
sS'end'
p221
S'4.0'
p222
sS'composition'
p223
(lp224
(lp225
S'16'
p226
aa(lp227
S'21'
p228
aasbag2
(g3
g4
Ntp229
Rp230
(dp231
S'start'
p232
S'0.0'
p233
sS'dim'
p234
I0
sS'end'
p235
S'4.0'
p236
sS'composition'
p237
(lp238
(lp239
S'20'
p240
aa(lp241
S'18'
p242
aasbag2
(g3
g4
Ntp243
Rp244
(dp245
S'start'
p246
S'0.0'
p247
sS'dim'
p248
I0
sS'end'
p249
S'4.0'
p250
sS'composition'
p251
(lp252
(lp253
S'21'
p254
aa(lp255
S'26'
p256
aasbag2
(g3
g4
Ntp257
Rp258
(dp259
S'start'
p260
S'0.0'
p261
sS'dim'
p262
I0
sS'end'
p263
S'4.0'
p264
sS'composition'
p265
(lp266
(lp267
S'18'
p268
aa(lp269
S'22'
p270
aasbag2
(g3
g4
Ntp271
Rp272
(dp273
S'start'
p274
S'0.0'
p275
sS'dim'
p276
I0
sS'end'
p277
S'4.0'
p278
sS'composition'
p279
(lp280
(lp281
S'14'
p282
aa(lp283
S'18'
p284
aasbag2
(g3
g4
Ntp285
Rp286
(dp287
S'start'
p288
S'0.0'
p289
sS'dim'
p290
I0
sS'end'
p291
S'5.0'
p292
sS'composition'
p293
(lp294
(lp295
S'0'
p296
aa(lp297
S'1'
p298
aasbag2
(g3
g4
Ntp299
Rp300
(dp301
S'start'
p302
S'0.0'
p303
sS'dim'
p304
I0
sS'end'
p305
S'5.0'
p306
sS'composition'
p307
(lp308
(lp309
S'16'
p310
aa(lp311
S'14'
p312
aasbag2
(g3
g4
Ntp313
Rp314
(dp315
S'start'
p316
S'0.0'
p317
sS'dim'
p318
I0
sS'end'
p319
S'6.0'
p320
sS'composition'
p321
(lp322
(lp323
S'2'
p324
aa(lp325
S'0'
p326
aasbag2
(g3
g4
Ntp327
Rp328
(dp329
S'start'
p330
S'0.0'
p331
sS'dim'
p332
I0
sS'end'
p333
S'6.0'
p334
sS'composition'
p335
(lp336
(lp337
S'10'
p338
aa(lp339
S'15'
p340
aasbag2
(g3
g4
Ntp341
Rp342
(dp343
S'start'
p344
S'0.0'
p345
sS'dim'
p346
I0
sS'end'
p347
S'6.0'
p348
sS'composition'
p349
(lp350
(lp351
S'10'
p352
aa(lp353
S'9'
p354
aasbag2
(g3
g4
Ntp355
Rp356
(dp357
S'start'
p358
S'0.0'
p359
sS'dim'
p360
I0
sS'end'
p361
S'8.0'
p362
sS'composition'
p363
(lp364
(lp365
S'4'
p366
aa(lp367
S'5'
p368
aasbag2
(g3
g4
Ntp369
Rp370
(dp371
S'start'
p372
S'0.0'
p373
sS'dim'
p374
I0
sS'end'
p375
S'9.0'
p376
sS'composition'
p377
(lp378
(lp379
S'6'
p380
aa(lp381
S'1'
p382
aasbag2
(g3
g4
Ntp383
Rp384
(dp385
S'start'
p386
S'0.0'
p387
sS'dim'
p388
I0
sS'end'
p389
S'10.0'
p390
sS'composition'
p391
(lp392
(lp393
S'6'
p394
aa(lp395
S'11'
p396
aasbag2
(g3
g4
Ntp397
Rp398
(dp399
S'start'
p400
S'0.0'
p401
sS'dim'
p402
I0
sS'end'
p403
S'33'
p404
sS'composition'
p405
(lp406
(lp407
S'0'
p408
aasbasI1
(lp409
g2
(g3
g4
Ntp410
Rp411
(dp412
S'start'
p413
S'6.0'
p414
sS'dim'
p415
I1
sS'end'
p416
S'7.0'
p417
sS'composition'
p418
(lp419
(lp420
S'12'
p421
aS'17'
p422
aa(lp423
S'13'
p424
aS'18'
p425
aa(lp426
S'12'
p427
aS'13'
p428
aa(lp429
S'17'
p430
aS'18'
p431
aasbag2
(g3
g4
Ntp432
Rp433
(dp434
S'start'
p435
S'7.0'
p436
sS'dim'
p437
I1
sS'end'
p438
S'8.0'
p439
sS'composition'
p440
(lp441
(lp442
S'13'
p443
aS'14'
p444
aa(lp445
S'9'
p446
aS'14'
p447
aa(lp448
S'8'
p449
aS'9'
p450
aa(lp451
S'8'
p452
aS'13'
p453
aasbag2
(g3
g4
Ntp454
Rp455
(dp456
S'start'
p457
S'6.0'
p458
sS'dim'
p459
I1
sS'end'
p460
S'8.0'
p461
sS'composition'
p462
(lp463
(lp464
S'19'
p465
aS'24'
p466
aa(lp467
S'18'
p468
aS'24'
p469
aa(lp470
S'3'
p471
aS'8'
p472
aa(lp473
S'9'
p474
aS'14'
p475
aa(lp476
S'14'
p477
aS'19'
p478
aa(lp479
S'3'
p480
aS'9'
p481
aa(lp482
S'13'
p483
aS'18'
p484
aa(lp485
S'8'
p486
aS'13'
p487
aasbag2
(g3
g4
Ntp488
Rp489
(dp490
S'start'
p491
S'7.0'
p492
sS'dim'
p493
I1
sS'end'
p494
S'8.0'
p495
sS'composition'
p496
(lp497
(lp498
S'14'
p499
aS'15'
p500
aa(lp501
S'14'
p502
aS'19'
p503
aa(lp504
S'19'
p505
aS'20'
p506
aa(lp507
S'15'
p508
aS'20'
p509
aasbag2
(g3
g4
Ntp510
Rp511
(dp512
S'start'
p513
S'5.0'
p514
sS'dim'
p515
I1
sS'end'
p516
S'8.0'
p517
sS'composition'
p518
(lp519
(lp520
S'20'
p521
aS'21'
p522
aa(lp523
S'21'
p524
aS'26'
p525
aa(lp526
S'20'
p527
aS'25'
p528
aa(lp529
S'25'
p530
aS'26'
p531
aasbag2
(g3
g4
Ntp532
Rp533
(dp534
S'start'
p535
S'7.0'
p536
sS'dim'
p537
I1
sS'end'
p538
S'9.0'
p539
sS'composition'
p540
(lp541
(lp542
S'9'
p543
aS'14'
p544
aa(lp545
S'14'
p546
aS'19'
p547
aa(lp548
S'10'
p549
aS'15'
p550
aa(lp551
S'19'
p552
aS'20'
p553
aa(lp554
S'15'
p555
aS'20'
p556
aa(lp557
S'9'
p558
aS'10'
p559
aasbag2
(g3
g4
Ntp560
Rp561
(dp562
S'start'
p563
S'10.0'
p564
sS'dim'
p565
I1
sS'end'
p566
S'11.0'
p567
sS'composition'
p568
(lp569
(lp570
S'6'
p571
aS'11'
p572
aa(lp573
S'4'
p574
aS'6'
p575
aa(lp576
S'4'
p577
aS'10'
p578
aa(lp579
S'10'
p580
aS'11'
p581
aasbas.