(dp0
I0
(lp1
ccopy_reg
_reconstructor
p2
(cHoles
Cycle
p3
c__builtin__
object
p4
Ntp5
Rp6
(dp7
S'start'
p8
S'0.0'
p9
sS'dim'
p10
I0
sS'end'
p11
S'1.0'
p12
sS'composition'
p13
(lp14
(lp15
S'14'
p16
aa(lp17
S'4'
p18
aasbag2
(g3
g4
Ntp19
Rp20
(dp21
S'start'
p22
S'0.0'
p23
sS'dim'
p24
I0
sS'end'
p25
S'1.0'
p26
sS'composition'
p27
(lp28
(lp29
S'10'
p30
aa(lp31
S'4'
p32
aasbag2
(g3
g4
Ntp33
Rp34
(dp35
S'start'
p36
S'0.0'
p37
sS'dim'
p38
I0
sS'end'
p39
S'2.0'
p40
sS'composition'
p41
(lp42
(lp43
S'19'
p44
aa(lp45
S'10'
p46
aasbag2
(g3
g4
Ntp47
Rp48
(dp49
S'start'
p50
S'0.0'
p51
sS'dim'
p52
I0
sS'end'
p53
S'3.0'
p54
sS'composition'
p55
(lp56
(lp57
S'12'
p58
aa(lp59
S'7'
p60
aasbag2
(g3
g4
Ntp61
Rp62
(dp63
S'start'
p64
S'0.0'
p65
sS'dim'
p66
I0
sS'end'
p67
S'4.0'
p68
sS'composition'
p69
(lp70
(lp71
S'6'
p72
aa(lp73
S'11'
p74
aasbag2
(g3
g4
Ntp75
Rp76
(dp77
S'start'
p78
S'0.0'
p79
sS'dim'
p80
I0
sS'end'
p81
S'5.0'
p82
sS'composition'
p83
(lp84
(lp85
S'4'
p86
aa(lp87
S'5'
p88
aasbag2
(g3
g4
Ntp89
Rp90
(dp91
S'start'
p92
S'0.0'
p93
sS'dim'
p94
I0
sS'end'
p95
S'5.0'
p96
sS'composition'
p97
(lp98
(lp99
S'29'
p100
aa(lp101
S'10'
p102
aasbag2
(g3
g4
Ntp103
Rp104
(dp105
S'start'
p106
S'0.0'
p107
sS'dim'
p108
I0
sS'end'
p109
S'5.0'
p110
sS'composition'
p111
(lp112
(lp113
S'30'
p114
aa(lp115
S'27'
p116
aasbag2
(g3
g4
Ntp117
Rp118
(dp119
S'start'
p120
S'0.0'
p121
sS'dim'
p122
I0
sS'end'
p123
S'6.0'
p124
sS'composition'
p125
(lp126
(lp127
S'0'
p128
aa(lp129
S'1'
p130
aasbag2
(g3
g4
Ntp131
Rp132
(dp133
S'start'
p134
S'0.0'
p135
sS'dim'
p136
I0
sS'end'
p137
S'6.0'
p138
sS'composition'
p139
(lp140
(lp141
S'6'
p142
aa(lp143
S'1'
p144
aasbag2
(g3
g4
Ntp145
Rp146
(dp147
S'start'
p148
S'0.0'
p149
sS'dim'
p150
I0
sS'end'
p151
S'6.0'
p152
sS'composition'
p153
(lp154
(lp155
S'4'
p156
aa(lp157
S'3'
p158
aasbag2
(g3
g4
Ntp159
Rp160
(dp161
S'start'
p162
S'0.0'
p163
sS'dim'
p164
I0
sS'end'
p165
S'7.0'
p166
sS'composition'
p167
(lp168
(lp169
S'3'
p170
aa(lp171
S'0'
p172
aasbag2
(g3
g4
Ntp173
Rp174
(dp175
S'start'
p176
S'0.0'
p177
sS'dim'
p178
I0
sS'end'
p179
S'7.0'
p180
sS'composition'
p181
(lp182
(lp183
S'27'
p184
aa(lp185
S'23'
p186
aasbag2
(g3
g4
Ntp187
Rp188
(dp189
S'start'
p190
S'0.0'
p191
sS'dim'
p192
I0
sS'end'
p193
S'7.0'
p194
sS'composition'
p195
(lp196
(lp197
S'28'
p198
aa(lp199
S'10'
p200
aasbag2
(g3
g4
Ntp201
Rp202
(dp203
S'start'
p204
S'0.0'
p205
sS'dim'
p206
I0
sS'end'
p207
S'7.0'
p208
sS'composition'
p209
(lp210
(lp211
S'10'
p212
aa(lp213
S'13'
p214
aasbag2
(g3
g4
Ntp215
Rp216
(dp217
S'start'
p218
S'0.0'
p219
sS'dim'
p220
I0
sS'end'
p221
S'8.0'
p222
sS'composition'
p223
(lp224
(lp225
S'7'
p226
aa(lp227
S'3'
p228
aasbag2
(g3
g4
Ntp229
Rp230
(dp231
S'start'
p232
S'0.0'
p233
sS'dim'
p234
I0
sS'end'
p235
S'9.0'
p236
sS'composition'
p237
(lp238
(lp239
S'16'
p240
aa(lp241
S'11'
p242
aasbag2
(g3
g4
Ntp243
Rp244
(dp245
S'start'
p246
S'0.0'
p247
sS'dim'
p248
I0
sS'end'
p249
S'10.0'
p250
sS'composition'
p251
(lp252
(lp253
S'13'
p254
aa(lp255
S'22'
p256
aasbag2
(g3
g4
Ntp257
Rp258
(dp259
S'start'
p260
S'0.0'
p261
sS'dim'
p262
I0
sS'end'
p263
S'11.0'
p264
sS'composition'
p265
(lp266
(lp267
S'2'
p268
aa(lp269
S'0'
p270
aasbag2
(g3
g4
Ntp271
Rp272
(dp273
S'start'
p274
S'0.0'
p275
sS'dim'
p276
I0
sS'end'
p277
S'12.0'
p278
sS'composition'
p279
(lp280
(lp281
S'21'
p282
aa(lp283
S'26'
p284
aasbag2
(g3
g4
Ntp285
Rp286
(dp287
S'start'
p288
S'0.0'
p289
sS'dim'
p290
I0
sS'end'
p291
S'13.0'
p292
sS'composition'
p293
(lp294
(lp295
S'16'
p296
aa(lp297
S'21'
p298
aasbag2
(g3
g4
Ntp299
Rp300
(dp301
S'start'
p302
S'0.0'
p303
sS'dim'
p304
I0
sS'end'
p305
S'13.0'
p306
sS'composition'
p307
(lp308
(lp309
S'13'
p310
aa(lp311
S'17'
p312
aasbag2
(g3
g4
Ntp313
Rp314
(dp315
S'start'
p316
S'0.0'
p317
sS'dim'
p318
I0
sS'end'
p319
S'32'
p320
sS'composition'
p321
(lp322
(lp323
S'0'
p324
aasbasI1
(lp325
g2
(g3
g4
Ntp326
Rp327
(dp328
S'start'
p329
S'8.0'
p330
sS'dim'
p331
I1
sS'end'
p332
S'9.0'
p333
sS'composition'
p334
(lp335
(lp336
S'4'
p337
aS'5'
p338
aa(lp339
S'1'
p340
aS'4'
p341
aa(lp342
S'1'
p343
aS'6'
p344
aa(lp345
S'5'
p346
aS'6'
p347
aasbag2
(g3
g4
Ntp348
Rp349
(dp350
S'start'
p351
S'8.0'
p352
sS'dim'
p353
I1
sS'end'
p354
S'11.0'
p355
sS'composition'
p356
(lp357
(lp358
S'28'
p359
aS'30'
p360
aa(lp361
S'10'
p362
aS'24'
p363
aa(lp364
S'10'
p365
aS'29'
p366
aa(lp367
S'13'
p368
aS'24'
p369
aa(lp370
S'23'
p371
aS'30'
p372
aa(lp373
S'13'
p374
aS'23'
p375
aa(lp376
S'28'
p377
aS'29'
p378
aasbag2
(g3
g4
Ntp379
Rp380
(dp381
S'start'
p382
S'11.0'
p383
sS'dim'
p384
I1
sS'end'
p385
S'13.0'
p386
sS'composition'
p387
(lp388
(lp389
S'22'
p390
aS'27'
p391
aa(lp392
S'27'
p393
aS'30'
p394
aa(lp395
S'13'
p396
aS'22'
p397
aa(lp398
S'13'
p399
aS'30'
p400
aasbag2
(g3
g4
Ntp401
Rp402
(dp403
S'start'
p404
S'14.0'
p405
sS'dim'
p406
I1
sS'end'
p407
S'15.0'
p408
sS'composition'
p409
(lp410
(lp411
S'12'
p412
aS'17'
p413
aa(lp414
S'13'
p415
aS'22'
p416
aa(lp417
S'17'
p418
aS'22'
p419
aa(lp420
S'12'
p421
aS'13'
p422
aasbag2
(g3
g4
Ntp423
Rp424
(dp425
S'start'
p426
S'14.0'
p427
sS'dim'
p428
I1
sS'end'
p429
S'18.0'
p430
sS'composition'
p431
(lp432
(lp433
S'4'
p434
aS'5'
p435
aa(lp436
S'21'
p437
aS'26'
p438
aa(lp439
S'26'
p440
aS'28'
p441
aa(lp442
S'5'
p443
aS'16'
p444
aa(lp445
S'28'
p446
aS'29'
p447
aa(lp448
S'4'
p449
aS'29'
p450
aa(lp451
S'16'
p452
aS'21'
p453
aasbas.