(dp0
I0
(lp1
ccopy_reg
_reconstructor
p2
(cHoles
Cycle
p3
c__builtin__
object
p4
Ntp5
Rp6
(dp7
S'start'
p8
S'0.0'
p9
sS'dim'
p10
I0
sS'end'
p11
S'1.0'
p12
sS'composition'
p13
(lp14
(lp15
S'7'
p16
aa(lp17
S'2'
p18
aasbag2
(g3
g4
Ntp19
Rp20
(dp21
S'start'
p22
S'0.0'
p23
sS'dim'
p24
I0
sS'end'
p25
S'1.0'
p26
sS'composition'
p27
(lp28
(lp29
S'8'
p30
aa(lp31
S'13'
p32
aasbag2
(g3
g4
Ntp33
Rp34
(dp35
S'start'
p36
S'0.0'
p37
sS'dim'
p38
I0
sS'end'
p39
S'1.0'
p40
sS'composition'
p41
(lp42
(lp43
S'18'
p44
aa(lp45
S'13'
p46
aasbag2
(g3
g4
Ntp47
Rp48
(dp49
S'start'
p50
S'0.0'
p51
sS'dim'
p52
I0
sS'end'
p53
S'1.0'
p54
sS'composition'
p55
(lp56
(lp57
S'14'
p58
aa(lp59
S'15'
p60
aasbag2
(g3
g4
Ntp61
Rp62
(dp63
S'start'
p64
S'0.0'
p65
sS'dim'
p66
I0
sS'end'
p67
S'1.0'
p68
sS'composition'
p69
(lp70
(lp71
S'20'
p72
aa(lp73
S'15'
p74
aasbag2
(g3
g4
Ntp75
Rp76
(dp77
S'start'
p78
S'0.0'
p79
sS'dim'
p80
I0
sS'end'
p81
S'1.0'
p82
sS'composition'
p83
(lp84
(lp85
S'19'
p86
aa(lp87
S'24'
p88
aasbag2
(g3
g4
Ntp89
Rp90
(dp91
S'start'
p92
S'0.0'
p93
sS'dim'
p94
I0
sS'end'
p95
S'1.0'
p96
sS'composition'
p97
(lp98
(lp99
S'20'
p100
aa(lp101
S'25'
p102
aasbag2
(g3
g4
Ntp103
Rp104
(dp105
S'start'
p106
S'0.0'
p107
sS'dim'
p108
I0
sS'end'
p109
S'1.0'
p110
sS'composition'
p111
(lp112
(lp113
S'27'
p114
aa(lp115
S'23'
p116
aasbag2
(g3
g4
Ntp117
Rp118
(dp119
S'start'
p120
S'0.0'
p121
sS'dim'
p122
I0
sS'end'
p123
S'1.0'
p124
sS'composition'
p125
(lp126
(lp127
S'25'
p128
aa(lp129
S'31'
p130
aasbag2
(g3
g4
Ntp131
Rp132
(dp133
S'start'
p134
S'0.0'
p135
sS'dim'
p136
I0
sS'end'
p137
S'1.0'
p138
sS'composition'
p139
(lp140
(lp141
S'20'
p142
aa(lp143
S'23'
p144
aasbag2
(g3
g4
Ntp145
Rp146
(dp147
S'start'
p148
S'0.0'
p149
sS'dim'
p150
I0
sS'end'
p151
S'2.0'
p152
sS'composition'
p153
(lp154
(lp155
S'2'
p156
aa(lp157
S'0'
p158
aasbag2
(g3
g4
Ntp159
Rp160
(dp161
S'start'
p162
S'0.0'
p163
sS'dim'
p164
I0
sS'end'
p165
S'2.0'
p166
sS'composition'
p167
(lp168
(lp169
S'4'
p170
aa(lp171
S'5'
p172
aasbag2
(g3
g4
Ntp173
Rp174
(dp175
S'start'
p176
S'0.0'
p177
sS'dim'
p178
I0
sS'end'
p179
S'2.0'
p180
sS'composition'
p181
(lp182
(lp183
S'10'
p184
aa(lp185
S'5'
p186
aasbag2
(g3
g4
Ntp187
Rp188
(dp189
S'start'
p190
S'0.0'
p191
sS'dim'
p192
I0
sS'end'
p193
S'2.0'
p194
sS'composition'
p195
(lp196
(lp197
S'8'
p198
aa(lp199
S'4'
p200
aasbag2
(g3
g4
Ntp201
Rp202
(dp203
S'start'
p204
S'0.0'
p205
sS'dim'
p206
I0
sS'end'
p207
S'2.0'
p208
sS'composition'
p209
(lp210
(lp211
S'21'
p212
aa(lp213
S'26'
p214
aasbag2
(g3
g4
Ntp215
Rp216
(dp217
S'start'
p218
S'0.0'
p219
sS'dim'
p220
I0
sS'end'
p221
S'2.0'
p222
sS'composition'
p223
(lp224
(lp225
S'20'
p226
aa(lp227
S'21'
p228
aasbag2
(g3
g4
Ntp229
Rp230
(dp231
S'start'
p232
S'0.0'
p233
sS'dim'
p234
I0
sS'end'
p235
S'3.0'
p236
sS'composition'
p237
(lp238
(lp239
S'0'
p240
aa(lp241
S'1'
p242
aasbag2
(g3
g4
Ntp243
Rp244
(dp245
S'start'
p246
S'0.0'
p247
sS'dim'
p248
I0
sS'end'
p249
S'3.0'
p250
sS'composition'
p251
(lp252
(lp253
S'3'
p254
aa(lp255
S'0'
p256
aasbag2
(g3
g4
Ntp257
Rp258
(dp259
S'start'
p260
S'0.0'
p261
sS'dim'
p262
I0
sS'end'
p263
S'3.0'
p264
sS'composition'
p265
(lp266
(lp267
S'4'
p268
aa(lp269
S'1'
p270
aasbag2
(g3
g4
Ntp271
Rp272
(dp273
S'start'
p274
S'0.0'
p275
sS'dim'
p276
I0
sS'end'
p277
S'3.0'
p278
sS'composition'
p279
(lp280
(lp281
S'12'
p282
aa(lp283
S'7'
p284
aasbag2
(g3
g4
Ntp285
Rp286
(dp287
S'start'
p288
S'0.0'
p289
sS'dim'
p290
I0
sS'end'
p291
S'4.0'
p292
sS'composition'
p293
(lp294
(lp295
S'6'
p296
aa(lp297
S'11'
p298
aasbag2
(g3
g4
Ntp299
Rp300
(dp301
S'start'
p302
S'0.0'
p303
sS'dim'
p304
I0
sS'end'
p305
S'4.0'
p306
sS'composition'
p307
(lp308
(lp309
S'12'
p310
aa(lp311
S'17'
p312
aasbag2
(g3
g4
Ntp313
Rp314
(dp315
S'start'
p316
S'0.0'
p317
sS'dim'
p318
I0
sS'end'
p319
S'4.0'
p320
sS'composition'
p321
(lp322
(lp323
S'17'
p324
aa(lp325
S'22'
p326
aasbag2
(g3
g4
Ntp327
Rp328
(dp329
S'start'
p330
S'0.0'
p331
sS'dim'
p332
I0
sS'end'
p333
S'5.0'
p334
sS'composition'
p335
(lp336
(lp337
S'16'
p338
aa(lp339
S'11'
p340
aasbag2
(g3
g4
Ntp341
Rp342
(dp343
S'start'
p344
S'0.0'
p345
sS'dim'
p346
I0
sS'end'
p347
S'5.0'
p348
sS'composition'
p349
(lp350
(lp351
S'6'
p352
aa(lp353
S'4'
p354
aasbag2
(g3
g4
Ntp355
Rp356
(dp357
S'start'
p358
S'0.0'
p359
sS'dim'
p360
I0
sS'end'
p361
S'31'
p362
sS'composition'
p363
(lp364
(lp365
S'0'
p366
aasbasI1
(lp367
g2
(g3
g4
Ntp368
Rp369
(dp370
S'start'
p371
S'2.0'
p372
sS'dim'
p373
I1
sS'end'
p374
S'3.0'
p375
sS'composition'
p376
(lp377
(lp378
S'14'
p379
aS'15'
p380
aa(lp381
S'9'
p382
aS'14'
p383
aa(lp384
S'10'
p385
aS'15'
p386
aa(lp387
S'5'
p388
aS'9'
p389
aa(lp390
S'5'
p391
aS'10'
p392
aasbag2
(g3
g4
Ntp393
Rp394
(dp395
S'start'
p396
S'2.0'
p397
sS'dim'
p398
I1
sS'end'
p399
S'3.0'
p400
sS'composition'
p401
(lp402
(lp403
S'14'
p404
aS'15'
p405
aa(lp406
S'14'
p407
aS'19'
p408
aa(lp409
S'19'
p410
aS'20'
p411
aa(lp412
S'15'
p413
aS'20'
p414
aasbag2
(g3
g4
Ntp415
Rp416
(dp417
S'start'
p418
S'3.0'
p419
sS'dim'
p420
I1
sS'end'
p421
S'4.0'
p422
sS'composition'
p423
(lp424
(lp425
S'0'
p426
aS'2'
p427
aa(lp428
S'3'
p429
aS'8'
p430
aa(lp431
S'2'
p432
aS'7'
p433
aa(lp434
S'7'
p435
aS'12'
p436
aa(lp437
S'0'
p438
aS'3'
p439
aa(lp440
S'12'
p441
aS'13'
p442
aa(lp443
S'8'
p444
aS'13'
p445
aasbag2
(g3
g4
Ntp446
Rp447
(dp448
S'start'
p449
S'3.0'
p450
sS'dim'
p451
I1
sS'end'
p452
S'4.0'
p453
sS'composition'
p454
(lp455
(lp456
S'19'
p457
aS'31'
p458
aa(lp459
S'25'
p460
aS'31'
p461
aa(lp462
S'19'
p463
aS'20'
p464
aa(lp465
S'20'
p466
aS'25'
p467
aasbag2
(g3
g4
Ntp468
Rp469
(dp470
S'start'
p471
S'2.0'
p472
sS'dim'
p473
I1
sS'end'
p474
S'4.0'
p475
sS'composition'
p476
(lp477
(lp478
S'18'
p479
aS'19'
p480
aa(lp481
S'23'
p482
aS'30'
p483
aa(lp484
S'14'
p485
aS'19'
p486
aa(lp487
S'27'
p488
aS'28'
p489
aa(lp490
S'25'
p491
aS'31'
p492
aa(lp493
S'18'
p494
aS'23'
p495
aa(lp496
S'14'
p497
aS'15'
p498
aa(lp499
S'27'
p500
aS'30'
p501
aa(lp502
S'28'
p503
aS'29'
p504
aa(lp505
S'29'
p506
aS'31'
p507
aa(lp508
S'15'
p509
aS'20'
p510
aa(lp511
S'20'
p512
aS'25'
p513
aasbag2
(g3
g4
Ntp514
Rp515
(dp516
S'start'
p517
S'3.0'
p518
sS'dim'
p519
I1
sS'end'
p520
S'5.0'
p521
sS'composition'
p522
(lp523
(lp524
S'13'
p525
aS'14'
p526
aa(lp527
S'3'
p528
aS'8'
p529
aa(lp530
S'9'
p531
aS'14'
p532
aa(lp533
S'0'
p534
aS'3'
p535
aa(lp536
S'1'
p537
aS'5'
p538
aa(lp539
S'5'
p540
aS'9'
p541
aa(lp542
S'8'
p543
aS'13'
p544
aa(lp545
S'0'
p546
aS'1'
p547
aasbag2
(g3
g4
Ntp548
Rp549
(dp550
S'start'
p551
S'5.0'
p552
sS'dim'
p553
I1
sS'end'
p554
S'6.0'
p555
sS'composition'
p556
(lp557
(lp558
S'12'
p559
aS'17'
p560
aa(lp561
S'8'
p562
aS'12'
p563
aa(lp564
S'8'
p565
aS'18'
p566
aa(lp567
S'17'
p568
aS'18'
p569
aasbag2
(g3
g4
Ntp570
Rp571
(dp572
S'start'
p573
S'6.0'
p574
sS'dim'
p575
I1
sS'end'
p576
S'7.0'
p577
sS'composition'
p578
(lp579
(lp580
S'11'
p581
aS'16'
p582
aa(lp583
S'15'
p584
aS'20'
p585
aa(lp586
S'5'
p587
aS'15'
p588
aa(lp589
S'5'
p590
aS'11'
p591
aa(lp592
S'20'
p593
aS'21'
p594
aa(lp595
S'16'
p596
aS'21'
p597
aasbag2
(g3
g4
Ntp598
Rp599
(dp600
S'start'
p601
S'5.0'
p602
sS'dim'
p603
I1
sS'end'
p604
S'7.0'
p605
sS'composition'
p606
(lp607
(lp608
S'18'
p609
aS'23'
p610
aa(lp611
S'17'
p612
aS'18'
p613
aa(lp614
S'17'
p615
aS'22'
p616
aa(lp617
S'22'
p618
aS'23'
p619
aasbas.