(dp0
I0
(lp1
ccopy_reg
_reconstructor
p2
(cHoles
Cycle
p3
c__builtin__
object
p4
Ntp5
Rp6
(dp7
S'start'
p8
S'0.0'
p9
sS'dim'
p10
I0
sS'end'
p11
S'1.0'
p12
sS'composition'
p13
(lp14
(lp15
S'8'
p16
aa(lp17
S'3'
p18
aasbag2
(g3
g4
Ntp19
Rp20
(dp21
S'start'
p22
S'0.0'
p23
sS'dim'
p24
I0
sS'end'
p25
S'1.0'
p26
sS'composition'
p27
(lp28
(lp29
S'20'
p30
aa(lp31
S'25'
p32
aasbag2
(g3
g4
Ntp33
Rp34
(dp35
S'start'
p36
S'0.0'
p37
sS'dim'
p38
I0
sS'end'
p39
S'2.0'
p40
sS'composition'
p41
(lp42
(lp43
S'3'
p44
aa(lp45
S'0'
p46
aasbag2
(g3
g4
Ntp47
Rp48
(dp49
S'start'
p50
S'0.0'
p51
sS'dim'
p52
I0
sS'end'
p53
S'2.0'
p54
sS'composition'
p55
(lp56
(lp57
S'12'
p58
aa(lp59
S'3'
p60
aasbag2
(g3
g4
Ntp61
Rp62
(dp63
S'start'
p64
S'0.0'
p65
sS'dim'
p66
I0
sS'end'
p67
S'2.0'
p68
sS'composition'
p69
(lp70
(lp71
S'10'
p72
aa(lp73
S'4'
p74
aasbag2
(g3
g4
Ntp75
Rp76
(dp77
S'start'
p78
S'0.0'
p79
sS'dim'
p80
I0
sS'end'
p81
S'2.0'
p82
sS'composition'
p83
(lp84
(lp85
S'3'
p86
aa(lp87
S'7'
p88
aasbag2
(g3
g4
Ntp89
Rp90
(dp91
S'start'
p92
S'0.0'
p93
sS'dim'
p94
I0
sS'end'
p95
S'2.0'
p96
sS'composition'
p97
(lp98
(lp99
S'8'
p100
aa(lp101
S'13'
p102
aasbag2
(g3
g4
Ntp103
Rp104
(dp105
S'start'
p106
S'0.0'
p107
sS'dim'
p108
I0
sS'end'
p109
S'2.0'
p110
sS'composition'
p111
(lp112
(lp113
S'18'
p114
aa(lp115
S'13'
p116
aasbag2
(g3
g4
Ntp117
Rp118
(dp119
S'start'
p120
S'0.0'
p121
sS'dim'
p122
I0
sS'end'
p123
S'2.0'
p124
sS'composition'
p125
(lp126
(lp127
S'17'
p128
aa(lp129
S'22'
p130
aasbag2
(g3
g4
Ntp131
Rp132
(dp133
S'start'
p134
S'0.0'
p135
sS'dim'
p136
I0
sS'end'
p137
S'2.0'
p138
sS'composition'
p139
(lp140
(lp141
S'20'
p142
aa(lp143
S'24'
p144
aasbag2
(g3
g4
Ntp145
Rp146
(dp147
S'start'
p148
S'0.0'
p149
sS'dim'
p150
I0
sS'end'
p151
S'3.0'
p152
sS'composition'
p153
(lp154
(lp155
S'4'
p156
aa(lp157
S'5'
p158
aasbag2
(g3
g4
Ntp159
Rp160
(dp161
S'start'
p162
S'0.0'
p163
sS'dim'
p164
I0
sS'end'
p165
S'3.0'
p166
sS'composition'
p167
(lp168
(lp169
S'6'
p170
aa(lp171
S'11'
p172
aasbag2
(g3
g4
Ntp173
Rp174
(dp175
S'start'
p176
S'0.0'
p177
sS'dim'
p178
I0
sS'end'
p179
S'3.0'
p180
sS'composition'
p181
(lp182
(lp183
S'14'
p184
aa(lp185
S'15'
p186
aasbag2
(g3
g4
Ntp187
Rp188
(dp189
S'start'
p190
S'0.0'
p191
sS'dim'
p192
I0
sS'end'
p193
S'3.0'
p194
sS'composition'
p195
(lp196
(lp197
S'23'
p198
aa(lp199
S'18'
p200
aasbag2
(g3
g4
Ntp201
Rp202
(dp203
S'start'
p204
S'0.0'
p205
sS'dim'
p206
I0
sS'end'
p207
S'4.0'
p208
sS'composition'
p209
(lp210
(lp211
S'6'
p212
aa(lp213
S'5'
p214
aasbag2
(g3
g4
Ntp215
Rp216
(dp217
S'start'
p218
S'0.0'
p219
sS'dim'
p220
I0
sS'end'
p221
S'6.0'
p222
sS'composition'
p223
(lp224
(lp225
S'2'
p226
aa(lp227
S'0'
p228
aasbag2
(g3
g4
Ntp229
Rp230
(dp231
S'start'
p232
S'0.0'
p233
sS'dim'
p234
I0
sS'end'
p235
S'7.0'
p236
sS'composition'
p237
(lp238
(lp239
S'0'
p240
aa(lp241
S'1'
p242
aasbag2
(g3
g4
Ntp243
Rp244
(dp245
S'start'
p246
S'0.0'
p247
sS'dim'
p248
I0
sS'end'
p249
S'7.0'
p250
sS'composition'
p251
(lp252
(lp253
S'25'
p254
aa(lp255
S'26'
p256
aasbag2
(g3
g4
Ntp257
Rp258
(dp259
S'start'
p260
S'0.0'
p261
sS'dim'
p262
I0
sS'end'
p263
S'8.0'
p264
sS'composition'
p265
(lp266
(lp267
S'12'
p268
aa(lp269
S'17'
p270
aasbag2
(g3
g4
Ntp271
Rp272
(dp273
S'start'
p274
S'0.0'
p275
sS'dim'
p276
I0
sS'end'
p277
S'11.0'
p278
sS'composition'
p279
(lp280
(lp281
S'16'
p282
aa(lp283
S'11'
p284
aasbag2
(g3
g4
Ntp285
Rp286
(dp287
S'start'
p288
S'0.0'
p289
sS'dim'
p290
I0
sS'end'
p291
S'12.0'
p292
sS'composition'
p293
(lp294
(lp295
S'20'
p296
aa(lp297
S'21'
p298
aasbag2
(g3
g4
Ntp299
Rp300
(dp301
S'start'
p302
S'0.0'
p303
sS'dim'
p304
I0
sS'end'
p305
S'28'
p306
sS'composition'
p307
(lp308
(lp309
S'0'
p310
aasbasI1
(lp311
g2
(g3
g4
Ntp312
Rp313
(dp314
S'start'
p315
S'3.0'
p316
sS'dim'
p317
I1
sS'end'
p318
S'5.0'
p319
sS'composition'
p320
(lp321
(lp322
S'18'
p323
aS'30'
p324
aa(lp325
S'13'
p326
aS'19'
p327
aa(lp328
S'15'
p329
aS'19'
p330
aa(lp331
S'13'
p332
aS'18'
p333
aa(lp334
S'15'
p335
aS'20'
p336
aa(lp337
S'20'
p338
aS'25'
p339
aa(lp340
S'25'
p341
aS'30'
p342
aasbag2
(g3
g4
Ntp343
Rp344
(dp345
S'start'
p346
S'8.0'
p347
sS'dim'
p348
I1
sS'end'
p349
S'9.0'
p350
sS'composition'
p351
(lp352
(lp353
S'12'
p354
aS'18'
p355
aa(lp356
S'18'
p357
aS'22'
p358
aa(lp359
S'12'
p360
aS'17'
p361
aa(lp362
S'17'
p363
aS'22'
p364
aasbas.