(dp0
I0
(lp1
ccopy_reg
_reconstructor
p2
(cHoles
Cycle
p3
c__builtin__
object
p4
Ntp5
Rp6
(dp7
S'start'
p8
S'0.0'
p9
sS'dim'
p10
I0
sS'end'
p11
S'1.0'
p12
sS'composition'
p13
(lp14
(lp15
S'8'
p16
aa(lp17
S'3'
p18
aasbag2
(g3
g4
Ntp19
Rp20
(dp21
S'start'
p22
S'0.0'
p23
sS'dim'
p24
I0
sS'end'
p25
S'1.0'
p26
sS'composition'
p27
(lp28
(lp29
S'20'
p30
aa(lp31
S'15'
p32
aasbag2
(g3
g4
Ntp33
Rp34
(dp35
S'start'
p36
S'0.0'
p37
sS'dim'
p38
I0
sS'end'
p39
S'1.0'
p40
sS'composition'
p41
(lp42
(lp43
S'23'
p44
aa(lp45
S'18'
p46
aasbag2
(g3
g4
Ntp47
Rp48
(dp49
S'start'
p50
S'0.0'
p51
sS'dim'
p52
I0
sS'end'
p53
S'1.0'
p54
sS'composition'
p55
(lp56
(lp57
S'19'
p58
aa(lp59
S'24'
p60
aasbag2
(g3
g4
Ntp61
Rp62
(dp63
S'start'
p64
S'0.0'
p65
sS'dim'
p66
I0
sS'end'
p67
S'1.0'
p68
sS'composition'
p69
(lp70
(lp71
S'29'
p72
aa(lp73
S'28'
p74
aasbag2
(g3
g4
Ntp75
Rp76
(dp77
S'start'
p78
S'0.0'
p79
sS'dim'
p80
I0
sS'end'
p81
S'1.0'
p82
sS'composition'
p83
(lp84
(lp85
S'30'
p86
aa(lp87
S'28'
p88
aasbag2
(g3
g4
Ntp89
Rp90
(dp91
S'start'
p92
S'0.0'
p93
sS'dim'
p94
I0
sS'end'
p95
S'1.0'
p96
sS'composition'
p97
(lp98
(lp99
S'29'
p100
aa(lp101
S'31'
p102
aasbag2
(g3
g4
Ntp103
Rp104
(dp105
S'start'
p106
S'0.0'
p107
sS'dim'
p108
I0
sS'end'
p109
S'2.0'
p110
sS'composition'
p111
(lp112
(lp113
S'4'
p114
aa(lp115
S'3'
p116
aasbag2
(g3
g4
Ntp117
Rp118
(dp119
S'start'
p120
S'0.0'
p121
sS'dim'
p122
I0
sS'end'
p123
S'2.0'
p124
sS'composition'
p125
(lp126
(lp127
S'4'
p128
aa(lp129
S'5'
p130
aasbag2
(g3
g4
Ntp131
Rp132
(dp133
S'start'
p134
S'0.0'
p135
sS'dim'
p136
I0
sS'end'
p137
S'2.0'
p138
sS'composition'
p139
(lp140
(lp141
S'8'
p142
aa(lp143
S'13'
p144
aasbag2
(g3
g4
Ntp145
Rp146
(dp147
S'start'
p148
S'0.0'
p149
sS'dim'
p150
I0
sS'end'
p151
S'2.0'
p152
sS'composition'
p153
(lp154
(lp155
S'10'
p156
aa(lp157
S'15'
p158
aasbag2
(g3
g4
Ntp159
Rp160
(dp161
S'start'
p162
S'0.0'
p163
sS'dim'
p164
I0
sS'end'
p165
S'2.0'
p166
sS'composition'
p167
(lp168
(lp169
S'18'
p170
aa(lp171
S'13'
p172
aasbag2
(g3
g4
Ntp173
Rp174
(dp175
S'start'
p176
S'0.0'
p177
sS'dim'
p178
I0
sS'end'
p179
S'2.0'
p180
sS'composition'
p181
(lp182
(lp183
S'20'
p184
aa(lp185
S'25'
p186
aasbag2
(g3
g4
Ntp187
Rp188
(dp189
S'start'
p190
S'0.0'
p191
sS'dim'
p192
I0
sS'end'
p193
S'2.0'
p194
sS'composition'
p195
(lp196
(lp197
S'28'
p198
aa(lp199
S'23'
p200
aasbag2
(g3
g4
Ntp201
Rp202
(dp203
S'start'
p204
S'0.0'
p205
sS'dim'
p206
I0
sS'end'
p207
S'2.0'
p208
sS'composition'
p209
(lp210
(lp211
S'8'
p212
aa(lp213
S'10'
p214
aasbag2
(g3
g4
Ntp215
Rp216
(dp217
S'start'
p218
S'0.0'
p219
sS'dim'
p220
I0
sS'end'
p221
S'2.0'
p222
sS'composition'
p223
(lp224
(lp225
S'27'
p226
aa(lp227
S'23'
p228
aasbag2
(g3
g4
Ntp229
Rp230
(dp231
S'start'
p232
S'0.0'
p233
sS'dim'
p234
I0
sS'end'
p235
S'3.0'
p236
sS'composition'
p237
(lp238
(lp239
S'3'
p240
aa(lp241
S'0'
p242
aasbag2
(g3
g4
Ntp243
Rp244
(dp245
S'start'
p246
S'0.0'
p247
sS'dim'
p248
I0
sS'end'
p249
S'3.0'
p250
sS'composition'
p251
(lp252
(lp253
S'0'
p254
aa(lp255
S'1'
p256
aasbag2
(g3
g4
Ntp257
Rp258
(dp259
S'start'
p260
S'0.0'
p261
sS'dim'
p262
I0
sS'end'
p263
S'3.0'
p264
sS'composition'
p265
(lp266
(lp267
S'14'
p268
aa(lp269
S'4'
p270
aasbag2
(g3
g4
Ntp271
Rp272
(dp273
S'start'
p274
S'0.0'
p275
sS'dim'
p276
I0
sS'end'
p277
S'4.0'
p278
sS'composition'
p279
(lp280
(lp281
S'2'
p282
aa(lp283
S'0'
p284
aasbag2
(g3
g4
Ntp285
Rp286
(dp287
S'start'
p288
S'0.0'
p289
sS'dim'
p290
I0
sS'end'
p291
S'4.0'
p292
sS'composition'
p293
(lp294
(lp295
S'6'
p296
aa(lp297
S'11'
p298
aasbag2
(g3
g4
Ntp299
Rp300
(dp301
S'start'
p302
S'0.0'
p303
sS'dim'
p304
I0
sS'end'
p305
S'5.0'
p306
sS'composition'
p307
(lp308
(lp309
S'7'
p310
aa(lp311
S'2'
p312
aasbag2
(g3
g4
Ntp313
Rp314
(dp315
S'start'
p316
S'0.0'
p317
sS'dim'
p318
I0
sS'end'
p319
S'5.0'
p320
sS'composition'
p321
(lp322
(lp323
S'6'
p324
aa(lp325
S'5'
p326
aasbag2
(g3
g4
Ntp327
Rp328
(dp329
S'start'
p330
S'0.0'
p331
sS'dim'
p332
I0
sS'end'
p333
S'5.0'
p334
sS'composition'
p335
(lp336
(lp337
S'12'
p338
aa(lp339
S'7'
p340
aasbag2
(g3
g4
Ntp341
Rp342
(dp343
S'start'
p344
S'0.0'
p345
sS'dim'
p346
I0
sS'end'
p347
S'5.0'
p348
sS'composition'
p349
(lp350
(lp351
S'16'
p352
aa(lp353
S'11'
p354
aasbag2
(g3
g4
Ntp355
Rp356
(dp357
S'start'
p358
S'0.0'
p359
sS'dim'
p360
I0
sS'end'
p361
S'6.0'
p362
sS'composition'
p363
(lp364
(lp365
S'12'
p366
aa(lp367
S'17'
p368
aasbag2
(g3
g4
Ntp369
Rp370
(dp371
S'start'
p372
S'0.0'
p373
sS'dim'
p374
I0
sS'end'
p375
S'6.0'
p376
sS'composition'
p377
(lp378
(lp379
S'21'
p380
aa(lp381
S'26'
p382
aasbag2
(g3
g4
Ntp383
Rp384
(dp385
S'start'
p386
S'0.0'
p387
sS'dim'
p388
I0
sS'end'
p389
S'6.0'
p390
sS'composition'
p391
(lp392
(lp393
S'18'
p394
aa(lp395
S'22'
p396
aasbag2
(g3
g4
Ntp397
Rp398
(dp399
S'start'
p400
S'0.0'
p401
sS'dim'
p402
I0
sS'end'
p403
S'6.0'
p404
sS'composition'
p405
(lp406
(lp407
S'20'
p408
aa(lp409
S'21'
p410
aasbag2
(g3
g4
Ntp411
Rp412
(dp413
S'start'
p414
S'0.0'
p415
sS'dim'
p416
I0
sS'end'
p417
S'26'
p418
sS'composition'
p419
(lp420
(lp421
S'0'
p422
aasbasI1
(lp423
g2
(g3
g4
Ntp424
Rp425
(dp426
S'start'
p427
S'4.0'
p428
sS'dim'
p429
I1
sS'end'
p430
S'5.0'
p431
sS'composition'
p432
(lp433
(lp434
S'4'
p435
aS'5'
p436
aa(lp437
S'14'
p438
aS'15'
p439
aa(lp440
S'4'
p441
aS'14'
p442
aa(lp443
S'5'
p444
aS'15'
p445
aasbag2
(g3
g4
Ntp446
Rp447
(dp448
S'start'
p449
S'4.0'
p450
sS'dim'
p451
I1
sS'end'
p452
S'5.0'
p453
sS'composition'
p454
(lp455
(lp456
S'9'
p457
aS'19'
p458
aa(lp459
S'18'
p460
aS'19'
p461
aa(lp462
S'3'
p463
aS'9'
p464
aa(lp465
S'13'
p466
aS'18'
p467
aa(lp468
S'3'
p469
aS'13'
p470
aasbag2
(g3
g4
Ntp471
Rp472
(dp473
S'start'
p474
S'3.0'
p475
sS'dim'
p476
I1
sS'end'
p477
S'5.0'
p478
sS'composition'
p479
(lp480
(lp481
S'13'
p482
aS'18'
p483
aa(lp484
S'5'
p485
aS'10'
p486
aa(lp487
S'28'
p488
aS'31'
p489
aa(lp490
S'8'
p491
aS'13'
p492
aa(lp493
S'4'
p494
aS'5'
p495
aa(lp496
S'28'
p497
aS'30'
p498
aa(lp499
S'23'
p500
aS'30'
p501
aa(lp502
S'3'
p503
aS'9'
p504
aa(lp505
S'15'
p506
aS'20'
p507
aa(lp508
S'18'
p509
aS'23'
p510
aa(lp511
S'20'
p512
aS'25'
p513
aa(lp514
S'4'
p515
aS'9'
p516
aa(lp517
S'3'
p518
aS'8'
p519
aa(lp520
S'10'
p521
aS'15'
p522
aa(lp523
S'25'
p524
aS'31'
p525
aasbag2
(g3
g4
Ntp526
Rp527
(dp528
S'start'
p529
S'7.0'
p530
sS'dim'
p531
I1
sS'end'
p532
S'8.0'
p533
sS'composition'
p534
(lp535
(lp536
S'6'
p537
aS'11'
p538
aa(lp539
S'11'
p540
aS'16'
p541
aa(lp542
S'5'
p543
aS'6'
p544
aa(lp545
S'5'
p546
aS'15'
p547
aa(lp548
S'15'
p549
aS'16'
p550
aasbag2
(g3
g4
Ntp551
Rp552
(dp553
S'start'
p554
S'7.0'
p555
sS'dim'
p556
I1
sS'end'
p557
S'9.0'
p558
sS'composition'
p559
(lp560
(lp561
S'12'
p562
aS'17'
p563
aa(lp564
S'18'
p565
aS'23'
p566
aa(lp567
S'17'
p568
aS'22'
p569
aa(lp570
S'13'
p571
aS'18'
p572
aa(lp573
S'12'
p574
aS'13'
p575
aa(lp576
S'22'
p577
aS'23'
p578
aasbas.