(dp0
I0
(lp1
ccopy_reg
_reconstructor
p2
(cHoles
Cycle
p3
c__builtin__
object
p4
Ntp5
Rp6
(dp7
S'start'
p8
S'0.0'
p9
sS'dim'
p10
I0
sS'end'
p11
S'1.0'
p12
sS'composition'
p13
(lp14
(lp15
S'14'
p16
aa(lp17
S'4'
p18
aasbag2
(g3
g4
Ntp19
Rp20
(dp21
S'start'
p22
S'0.0'
p23
sS'dim'
p24
I0
sS'end'
p25
S'1.0'
p26
sS'composition'
p27
(lp28
(lp29
S'8'
p30
aa(lp31
S'13'
p32
aasbag2
(g3
g4
Ntp33
Rp34
(dp35
S'start'
p36
S'0.0'
p37
sS'dim'
p38
I0
sS'end'
p39
S'1.0'
p40
sS'composition'
p41
(lp42
(lp43
S'14'
p44
aa(lp45
S'24'
p46
aasbag2
(g3
g4
Ntp47
Rp48
(dp49
S'start'
p50
S'0.0'
p51
sS'dim'
p52
I0
sS'end'
p53
S'3.0'
p54
sS'composition'
p55
(lp56
(lp57
S'28'
p58
aa(lp59
S'27'
p60
aasbag2
(g3
g4
Ntp61
Rp62
(dp63
S'start'
p64
S'0.0'
p65
sS'dim'
p66
I0
sS'end'
p67
S'4.0'
p68
sS'composition'
p69
(lp70
(lp71
S'25'
p72
aa(lp73
S'31'
p74
aasbag2
(g3
g4
Ntp75
Rp76
(dp77
S'start'
p78
S'0.0'
p79
sS'dim'
p80
I0
sS'end'
p81
S'4.0'
p82
sS'composition'
p83
(lp84
(lp85
S'25'
p86
aa(lp87
S'27'
p88
aasbag2
(g3
g4
Ntp89
Rp90
(dp91
S'start'
p92
S'0.0'
p93
sS'dim'
p94
I0
sS'end'
p95
S'5.0'
p96
sS'composition'
p97
(lp98
(lp99
S'0'
p100
aa(lp101
S'1'
p102
aasbag2
(g3
g4
Ntp103
Rp104
(dp105
S'start'
p106
S'0.0'
p107
sS'dim'
p108
I0
sS'end'
p109
S'5.0'
p110
sS'composition'
p111
(lp112
(lp113
S'14'
p114
aa(lp115
S'15'
p116
aasbag2
(g3
g4
Ntp117
Rp118
(dp119
S'start'
p120
S'0.0'
p121
sS'dim'
p122
I0
sS'end'
p123
S'6.0'
p124
sS'composition'
p125
(lp126
(lp127
S'4'
p128
aa(lp129
S'1'
p130
aasbag2
(g3
g4
Ntp131
Rp132
(dp133
S'start'
p134
S'0.0'
p135
sS'dim'
p136
I0
sS'end'
p137
S'6.0'
p138
sS'composition'
p139
(lp140
(lp141
S'5'
p142
aa(lp143
S'1'
p144
aasbag2
(g3
g4
Ntp145
Rp146
(dp147
S'start'
p148
S'0.0'
p149
sS'dim'
p150
I0
sS'end'
p151
S'6.0'
p152
sS'composition'
p153
(lp154
(lp155
S'10'
p156
aa(lp157
S'5'
p158
aasbag2
(g3
g4
Ntp159
Rp160
(dp161
S'start'
p162
S'0.0'
p163
sS'dim'
p164
I0
sS'end'
p165
S'6.0'
p166
sS'composition'
p167
(lp168
(lp169
S'16'
p170
aa(lp171
S'11'
p172
aasbag2
(g3
g4
Ntp173
Rp174
(dp175
S'start'
p176
S'0.0'
p177
sS'dim'
p178
I0
sS'end'
p179
S'6.0'
p180
sS'composition'
p181
(lp182
(lp183
S'20'
p184
aa(lp185
S'15'
p186
aasbag2
(g3
g4
Ntp187
Rp188
(dp189
S'start'
p190
S'0.0'
p191
sS'dim'
p192
I0
sS'end'
p193
S'6.0'
p194
sS'composition'
p195
(lp196
(lp197
S'20'
p198
aa(lp199
S'25'
p200
aasbag2
(g3
g4
Ntp201
Rp202
(dp203
S'start'
p204
S'0.0'
p205
sS'dim'
p206
I0
sS'end'
p207
S'7.0'
p208
sS'composition'
p209
(lp210
(lp211
S'3'
p212
aa(lp213
S'0'
p214
aasbag2
(g3
g4
Ntp215
Rp216
(dp217
S'start'
p218
S'0.0'
p219
sS'dim'
p220
I0
sS'end'
p221
S'7.0'
p222
sS'composition'
p223
(lp224
(lp225
S'8'
p226
aa(lp227
S'4'
p228
aasbag2
(g3
g4
Ntp229
Rp230
(dp231
S'start'
p232
S'0.0'
p233
sS'dim'
p234
I0
sS'end'
p235
S'7.0'
p236
sS'composition'
p237
(lp238
(lp239
S'6'
p240
aa(lp241
S'11'
p242
aasbag2
(g3
g4
Ntp243
Rp244
(dp245
S'start'
p246
S'0.0'
p247
sS'dim'
p248
I0
sS'end'
p249
S'7.0'
p250
sS'composition'
p251
(lp252
(lp253
S'18'
p254
aa(lp255
S'13'
p256
aasbag2
(g3
g4
Ntp257
Rp258
(dp259
S'start'
p260
S'0.0'
p261
sS'dim'
p262
I0
sS'end'
p263
S'7.0'
p264
sS'composition'
p265
(lp266
(lp267
S'25'
p268
aa(lp269
S'26'
p270
aasbag2
(g3
g4
Ntp271
Rp272
(dp273
S'start'
p274
S'0.0'
p275
sS'dim'
p276
I0
sS'end'
p277
S'7.0'
p278
sS'composition'
p279
(lp280
(lp281
S'30'
p282
aa(lp283
S'27'
p284
aasbag2
(g3
g4
Ntp285
Rp286
(dp287
S'start'
p288
S'0.0'
p289
sS'dim'
p290
I0
sS'end'
p291
S'8.0'
p292
sS'composition'
p293
(lp294
(lp295
S'6'
p296
aa(lp297
S'1'
p298
aasbag2
(g3
g4
Ntp299
Rp300
(dp301
S'start'
p302
S'0.0'
p303
sS'dim'
p304
I0
sS'end'
p305
S'8.0'
p306
sS'composition'
p307
(lp308
(lp309
S'16'
p310
aa(lp311
S'21'
p312
aasbag2
(g3
g4
Ntp313
Rp314
(dp315
S'start'
p316
S'0.0'
p317
sS'dim'
p318
I0
sS'end'
p319
S'8.0'
p320
sS'composition'
p321
(lp322
(lp323
S'29'
p324
aa(lp325
S'28'
p326
aasbag2
(g3
g4
Ntp327
Rp328
(dp329
S'start'
p330
S'0.0'
p331
sS'dim'
p332
I0
sS'end'
p333
S'10.0'
p334
sS'composition'
p335
(lp336
(lp337
S'12'
p338
aa(lp339
S'7'
p340
aasbag2
(g3
g4
Ntp341
Rp342
(dp343
S'start'
p344
S'0.0'
p345
sS'dim'
p346
I0
sS'end'
p347
S'10.0'
p348
sS'composition'
p349
(lp350
(lp351
S'12'
p352
aa(lp353
S'17'
p354
aasbag2
(g3
g4
Ntp355
Rp356
(dp357
S'start'
p358
S'0.0'
p359
sS'dim'
p360
I0
sS'end'
p361
S'10.0'
p362
sS'composition'
p363
(lp364
(lp365
S'20'
p366
aa(lp367
S'23'
p368
aasbag2
(g3
g4
Ntp369
Rp370
(dp371
S'start'
p372
S'0.0'
p373
sS'dim'
p374
I0
sS'end'
p375
S'12.0'
p376
sS'composition'
p377
(lp378
(lp379
S'7'
p380
aa(lp381
S'2'
p382
aasbag2
(g3
g4
Ntp383
Rp384
(dp385
S'start'
p386
S'0.0'
p387
sS'dim'
p388
I0
sS'end'
p389
S'13.0'
p390
sS'composition'
p391
(lp392
(lp393
S'2'
p394
aa(lp395
S'0'
p396
aasbag2
(g3
g4
Ntp397
Rp398
(dp399
S'start'
p400
S'0.0'
p401
sS'dim'
p402
I0
sS'end'
p403
S'16.0'
p404
sS'composition'
p405
(lp406
(lp407
S'17'
p408
aa(lp409
S'22'
p410
aasbag2
(g3
g4
Ntp411
Rp412
(dp413
S'start'
p414
S'0.0'
p415
sS'dim'
p416
I0
sS'end'
p417
S'31'
p418
sS'composition'
p419
(lp420
(lp421
S'0'
p422
aasbasI1
(lp423
g2
(g3
g4
Ntp424
Rp425
(dp426
S'start'
p427
S'8.0'
p428
sS'dim'
p429
I1
sS'end'
p430
S'9.0'
p431
sS'composition'
p432
(lp433
(lp434
S'1'
p435
aS'10'
p436
aa(lp437
S'1'
p438
aS'6'
p439
aa(lp440
S'10'
p441
aS'15'
p442
aa(lp443
S'6'
p444
aS'16'
p445
aa(lp446
S'15'
p447
aS'16'
p448
aasbag2
(g3
g4
Ntp449
Rp450
(dp451
S'start'
p452
S'8.0'
p453
sS'dim'
p454
I1
sS'end'
p455
S'9.0'
p456
sS'composition'
p457
(lp458
(lp459
S'20'
p460
aS'21'
p461
aa(lp462
S'15'
p463
aS'20'
p464
aa(lp465
S'15'
p466
aS'16'
p467
aa(lp468
S'16'
p469
aS'21'
p470
aasbag2
(g3
g4
Ntp471
Rp472
(dp473
S'start'
p474
S'8.0'
p475
sS'dim'
p476
I1
sS'end'
p477
S'9.0'
p478
sS'composition'
p479
(lp480
(lp481
S'20'
p482
aS'21'
p483
aa(lp484
S'21'
p485
aS'26'
p486
aa(lp487
S'20'
p488
aS'25'
p489
aa(lp490
S'25'
p491
aS'26'
p492
aasbag2
(g3
g4
Ntp493
Rp494
(dp495
S'start'
p496
S'13.0'
p497
sS'dim'
p498
I1
sS'end'
p499
S'14.0'
p500
sS'composition'
p501
(lp502
(lp503
S'7'
p504
aS'17'
p505
aa(lp506
S'13'
p507
aS'17'
p508
aa(lp509
S'2'
p510
aS'7'
p511
aa(lp512
S'0'
p513
aS'2'
p514
aa(lp515
S'0'
p516
aS'3'
p517
aa(lp518
S'3'
p519
aS'13'
p520
aasbag2
(g3
g4
Ntp521
Rp522
(dp523
S'start'
p524
S'12.0'
p525
sS'dim'
p526
I1
sS'end'
p527
S'14.0'
p528
sS'composition'
p529
(lp530
(lp531
S'4'
p532
aS'18'
p533
aa(lp534
S'18'
p535
aS'23'
p536
aa(lp537
S'4'
p538
aS'20'
p539
aa(lp540
S'23'
p541
aS'30'
p542
aa(lp543
S'20'
p544
aS'25'
p545
aa(lp546
S'25'
p547
aS'30'
p548
aasbas.