(dp0
I0
(lp1
ccopy_reg
_reconstructor
p2
(cHoles
Cycle
p3
c__builtin__
object
p4
Ntp5
Rp6
(dp7
S'start'
p8
S'0.0'
p9
sS'dim'
p10
I0
sS'end'
p11
S'1.0'
p12
sS'composition'
p13
(lp14
(lp15
S'0'
p16
aa(lp17
S'1'
p18
aasbag2
(g3
g4
Ntp19
Rp20
(dp21
S'start'
p22
S'0.0'
p23
sS'dim'
p24
I0
sS'end'
p25
S'1.0'
p26
sS'composition'
p27
(lp28
(lp29
S'4'
p30
aa(lp31
S'0'
p32
aasbag2
(g3
g4
Ntp33
Rp34
(dp35
S'start'
p36
S'0.0'
p37
sS'dim'
p38
I0
sS'end'
p39
S'1.0'
p40
sS'composition'
p41
(lp42
(lp43
S'8'
p44
aa(lp45
S'3'
p46
aasbag2
(g3
g4
Ntp47
Rp48
(dp49
S'start'
p50
S'0.0'
p51
sS'dim'
p52
I0
sS'end'
p53
S'1.0'
p54
sS'composition'
p55
(lp56
(lp57
S'12'
p58
aa(lp59
S'7'
p60
aasbag2
(g3
g4
Ntp61
Rp62
(dp63
S'start'
p64
S'0.0'
p65
sS'dim'
p66
I0
sS'end'
p67
S'1.0'
p68
sS'composition'
p69
(lp70
(lp71
S'10'
p72
aa(lp73
S'15'
p74
aasbag2
(g3
g4
Ntp75
Rp76
(dp77
S'start'
p78
S'0.0'
p79
sS'dim'
p80
I0
sS'end'
p81
S'1.0'
p82
sS'composition'
p83
(lp84
(lp85
S'20'
p86
aa(lp87
S'15'
p88
aasbag2
(g3
g4
Ntp89
Rp90
(dp91
S'start'
p92
S'0.0'
p93
sS'dim'
p94
I0
sS'end'
p95
S'2.0'
p96
sS'composition'
p97
(lp98
(lp99
S'5'
p100
aa(lp101
S'0'
p102
aasbag2
(g3
g4
Ntp103
Rp104
(dp105
S'start'
p106
S'0.0'
p107
sS'dim'
p108
I0
sS'end'
p109
S'2.0'
p110
sS'composition'
p111
(lp112
(lp113
S'3'
p114
aa(lp115
S'0'
p116
aasbag2
(g3
g4
Ntp117
Rp118
(dp119
S'start'
p120
S'0.0'
p121
sS'dim'
p122
I0
sS'end'
p123
S'2.0'
p124
sS'composition'
p125
(lp126
(lp127
S'10'
p128
aa(lp129
S'5'
p130
aasbag2
(g3
g4
Ntp131
Rp132
(dp133
S'start'
p134
S'0.0'
p135
sS'dim'
p136
I0
sS'end'
p137
S'2.0'
p138
sS'composition'
p139
(lp140
(lp141
S'6'
p142
aa(lp143
S'11'
p144
aasbag2
(g3
g4
Ntp145
Rp146
(dp147
S'start'
p148
S'0.0'
p149
sS'dim'
p150
I0
sS'end'
p151
S'2.0'
p152
sS'composition'
p153
(lp154
(lp155
S'8'
p156
aa(lp157
S'13'
p158
aasbag2
(g3
g4
Ntp159
Rp160
(dp161
S'start'
p162
S'0.0'
p163
sS'dim'
p164
I0
sS'end'
p165
S'2.0'
p166
sS'composition'
p167
(lp168
(lp169
S'16'
p170
aa(lp171
S'21'
p172
aasbag2
(g3
g4
Ntp173
Rp174
(dp175
S'start'
p176
S'0.0'
p177
sS'dim'
p178
I0
sS'end'
p179
S'2.0'
p180
sS'composition'
p181
(lp182
(lp183
S'23'
p184
aa(lp185
S'18'
p186
aasbag2
(g3
g4
Ntp187
Rp188
(dp189
S'start'
p190
S'0.0'
p191
sS'dim'
p192
I0
sS'end'
p193
S'2.0'
p194
sS'composition'
p195
(lp196
(lp197
S'21'
p198
aa(lp199
S'26'
p200
aasbag2
(g3
g4
Ntp201
Rp202
(dp203
S'start'
p204
S'0.0'
p205
sS'dim'
p206
I0
sS'end'
p207
S'2.0'
p208
sS'composition'
p209
(lp210
(lp211
S'25'
p212
aa(lp213
S'28'
p214
aasbag2
(g3
g4
Ntp215
Rp216
(dp217
S'start'
p218
S'0.0'
p219
sS'dim'
p220
I0
sS'end'
p221
S'2.0'
p222
sS'composition'
p223
(lp224
(lp225
S'25'
p226
aa(lp227
S'27'
p228
aasbag2
(g3
g4
Ntp229
Rp230
(dp231
S'start'
p232
S'0.0'
p233
sS'dim'
p234
I0
sS'end'
p235
S'3.0'
p236
sS'composition'
p237
(lp238
(lp239
S'2'
p240
aa(lp241
S'0'
p242
aasbag2
(g3
g4
Ntp243
Rp244
(dp245
S'start'
p246
S'0.0'
p247
sS'dim'
p248
I0
sS'end'
p249
S'3.0'
p250
sS'composition'
p251
(lp252
(lp253
S'16'
p254
aa(lp255
S'10'
p256
aasbag2
(g3
g4
Ntp257
Rp258
(dp259
S'start'
p260
S'0.0'
p261
sS'dim'
p262
I0
sS'end'
p263
S'3.0'
p264
sS'composition'
p265
(lp266
(lp267
S'12'
p268
aa(lp269
S'17'
p270
aasbag2
(g3
g4
Ntp271
Rp272
(dp273
S'start'
p274
S'0.0'
p275
sS'dim'
p276
I0
sS'end'
p277
S'3.0'
p278
sS'composition'
p279
(lp280
(lp281
S'18'
p282
aa(lp283
S'13'
p284
aasbag2
(g3
g4
Ntp285
Rp286
(dp287
S'start'
p288
S'0.0'
p289
sS'dim'
p290
I0
sS'end'
p291
S'3.0'
p292
sS'composition'
p293
(lp294
(lp295
S'18'
p296
aa(lp297
S'22'
p298
aasbag2
(g3
g4
Ntp299
Rp300
(dp301
S'start'
p302
S'0.0'
p303
sS'dim'
p304
I0
sS'end'
p305
S'3.0'
p306
sS'composition'
p307
(lp308
(lp309
S'25'
p310
aa(lp311
S'23'
p312
aasbag2
(g3
g4
Ntp313
Rp314
(dp315
S'start'
p316
S'0.0'
p317
sS'dim'
p318
I0
sS'end'
p319
S'4.0'
p320
sS'composition'
p321
(lp322
(lp323
S'7'
p324
aa(lp325
S'3'
p326
aasbag2
(g3
g4
Ntp327
Rp328
(dp329
S'start'
p330
S'0.0'
p331
sS'dim'
p332
I0
sS'end'
p333
S'32'
p334
sS'composition'
p335
(lp336
(lp337
S'0'
p338
aasbasI1
(lp339
g2
(g3
g4
Ntp340
Rp341
(dp342
S'start'
p343
S'4.0'
p344
sS'dim'
p345
I1
sS'end'
p346
S'5.0'
p347
sS'composition'
p348
(lp349
(lp350
S'10'
p351
aS'20'
p352
aa(lp353
S'21'
p354
aS'26'
p355
aa(lp356
S'20'
p357
aS'26'
p358
aa(lp359
S'10'
p360
aS'16'
p361
aa(lp362
S'16'
p363
aS'21'
p364
aasbag2
(g3
g4
Ntp365
Rp366
(dp367
S'start'
p368
S'8.0'
p369
sS'dim'
p370
I1
sS'end'
p371
S'10.0'
p372
sS'composition'
p373
(lp374
(lp375
S'17'
p376
aS'22'
p377
aa(lp378
S'18'
p379
aS'22'
p380
aa(lp381
S'7'
p382
aS'17'
p383
aa(lp384
S'13'
p385
aS'18'
p386
aa(lp387
S'7'
p388
aS'13'
p389
aasbag2
(g3
g4
Ntp390
Rp391
(dp392
S'start'
p393
S'5.0'
p394
sS'dim'
p395
I1
sS'end'
p396
S'11.0'
p397
sS'composition'
p398
(lp399
(lp400
S'13'
p401
aS'18'
p402
aa(lp403
S'5'
p404
aS'10'
p405
aa(lp406
S'23'
p407
aS'27'
p408
aa(lp409
S'25'
p410
aS'26'
p411
aa(lp412
S'3'
p413
aS'14'
p414
aa(lp415
S'0'
p416
aS'3'
p417
aa(lp418
S'0'
p419
aS'5'
p420
aa(lp421
S'10'
p422
aS'20'
p423
aa(lp424
S'18'
p425
aS'23'
p426
aa(lp427
S'9'
p428
aS'24'
p429
aa(lp430
S'14'
p431
aS'24'
p432
aa(lp433
S'20'
p434
aS'26'
p435
aa(lp436
S'27'
p437
aS'28'
p438
aa(lp439
S'3'
p440
aS'9'
p441
aa(lp442
S'3'
p443
aS'8'
p444
aa(lp445
S'25'
p446
aS'28'
p447
aa(lp448
S'8'
p449
aS'13'
p450
aasbas.