(dp0
I0
(lp1
ccopy_reg
_reconstructor
p2
(cHoles
Cycle
p3
c__builtin__
object
p4
Ntp5
Rp6
(dp7
S'start'
p8
S'0.0'
p9
sS'dim'
p10
I0
sS'end'
p11
S'1.0'
p12
sS'composition'
p13
(lp14
(lp15
S'4'
p16
aa(lp17
S'3'
p18
aasbag2
(g3
g4
Ntp19
Rp20
(dp21
S'start'
p22
S'0.0'
p23
sS'dim'
p24
I0
sS'end'
p25
S'1.0'
p26
sS'composition'
p27
(lp28
(lp29
S'8'
p30
aa(lp31
S'3'
p32
aasbag2
(g3
g4
Ntp33
Rp34
(dp35
S'start'
p36
S'0.0'
p37
sS'dim'
p38
I0
sS'end'
p39
S'1.0'
p40
sS'composition'
p41
(lp42
(lp43
S'8'
p44
aa(lp45
S'13'
p46
aasbag2
(g3
g4
Ntp47
Rp48
(dp49
S'start'
p50
S'0.0'
p51
sS'dim'
p52
I0
sS'end'
p53
S'1.0'
p54
sS'composition'
p55
(lp56
(lp57
S'14'
p58
aa(lp59
S'9'
p60
aasbag2
(g3
g4
Ntp61
Rp62
(dp63
S'start'
p64
S'0.0'
p65
sS'dim'
p66
I0
sS'end'
p67
S'1.0'
p68
sS'composition'
p69
(lp70
(lp71
S'10'
p72
aa(lp73
S'15'
p74
aasbag2
(g3
g4
Ntp75
Rp76
(dp77
S'start'
p78
S'0.0'
p79
sS'dim'
p80
I0
sS'end'
p81
S'1.0'
p82
sS'composition'
p83
(lp84
(lp85
S'25'
p86
aa(lp87
S'23'
p88
aasbag2
(g3
g4
Ntp89
Rp90
(dp91
S'start'
p92
S'0.0'
p93
sS'dim'
p94
I0
sS'end'
p95
S'2.0'
p96
sS'composition'
p97
(lp98
(lp99
S'0'
p100
aa(lp101
S'1'
p102
aasbag2
(g3
g4
Ntp103
Rp104
(dp105
S'start'
p106
S'0.0'
p107
sS'dim'
p108
I0
sS'end'
p109
S'2.0'
p110
sS'composition'
p111
(lp112
(lp113
S'3'
p114
aa(lp115
S'0'
p116
aasbag2
(g3
g4
Ntp117
Rp118
(dp119
S'start'
p120
S'0.0'
p121
sS'dim'
p122
I0
sS'end'
p123
S'2.0'
p124
sS'composition'
p125
(lp126
(lp127
S'4'
p128
aa(lp129
S'5'
p130
aasbag2
(g3
g4
Ntp131
Rp132
(dp133
S'start'
p134
S'0.0'
p135
sS'dim'
p136
I0
sS'end'
p137
S'2.0'
p138
sS'composition'
p139
(lp140
(lp141
S'10'
p142
aa(lp143
S'5'
p144
aasbag2
(g3
g4
Ntp145
Rp146
(dp147
S'start'
p148
S'0.0'
p149
sS'dim'
p150
I0
sS'end'
p151
S'2.0'
p152
sS'composition'
p153
(lp154
(lp155
S'18'
p156
aa(lp157
S'13'
p158
aasbag2
(g3
g4
Ntp159
Rp160
(dp161
S'start'
p162
S'0.0'
p163
sS'dim'
p164
I0
sS'end'
p165
S'3.0'
p166
sS'composition'
p167
(lp168
(lp169
S'2'
p170
aa(lp171
S'0'
p172
aasbag2
(g3
g4
Ntp173
Rp174
(dp175
S'start'
p176
S'0.0'
p177
sS'dim'
p178
I0
sS'end'
p179
S'3.0'
p180
sS'composition'
p181
(lp182
(lp183
S'7'
p184
aa(lp185
S'2'
p186
aasbag2
(g3
g4
Ntp187
Rp188
(dp189
S'start'
p190
S'0.0'
p191
sS'dim'
p192
I0
sS'end'
p193
S'3.0'
p194
sS'composition'
p195
(lp196
(lp197
S'6'
p198
aa(lp199
S'11'
p200
aasbag2
(g3
g4
Ntp201
Rp202
(dp203
S'start'
p204
S'0.0'
p205
sS'dim'
p206
I0
sS'end'
p207
S'4.0'
p208
sS'composition'
p209
(lp210
(lp211
S'12'
p212
aa(lp213
S'7'
p214
aasbag2
(g3
g4
Ntp215
Rp216
(dp217
S'start'
p218
S'0.0'
p219
sS'dim'
p220
I0
sS'end'
p221
S'5.0'
p222
sS'composition'
p223
(lp224
(lp225
S'6'
p226
aa(lp227
S'5'
p228
aasbag2
(g3
g4
Ntp229
Rp230
(dp231
S'start'
p232
S'0.0'
p233
sS'dim'
p234
I0
sS'end'
p235
S'5.0'
p236
sS'composition'
p237
(lp238
(lp239
S'16'
p240
aa(lp241
S'11'
p242
aasbag2
(g3
g4
Ntp243
Rp244
(dp245
S'start'
p246
S'0.0'
p247
sS'dim'
p248
I0
sS'end'
p249
S'6.0'
p250
sS'composition'
p251
(lp252
(lp253
S'12'
p254
aa(lp255
S'17'
p256
aasbag2
(g3
g4
Ntp257
Rp258
(dp259
S'start'
p260
S'0.0'
p261
sS'dim'
p262
I0
sS'end'
p263
S'6.0'
p264
sS'composition'
p265
(lp266
(lp267
S'18'
p268
aa(lp269
S'22'
p270
aasbag2
(g3
g4
Ntp271
Rp272
(dp273
S'start'
p274
S'0.0'
p275
sS'dim'
p276
I0
sS'end'
p277
S'6.0'
p278
sS'composition'
p279
(lp280
(lp281
S'25'
p282
aa(lp283
S'26'
p284
aasbag2
(g3
g4
Ntp285
Rp286
(dp287
S'start'
p288
S'0.0'
p289
sS'dim'
p290
I0
sS'end'
p291
S'7.0'
p292
sS'composition'
p293
(lp294
(lp295
S'16'
p296
aa(lp297
S'21'
p298
aasbag2
(g3
g4
Ntp299
Rp300
(dp301
S'start'
p302
S'0.0'
p303
sS'dim'
p304
I0
sS'end'
p305
S'25'
p306
sS'composition'
p307
(lp308
(lp309
S'0'
p310
aasbasI1
(lp311
g2
(g3
g4
Ntp312
Rp313
(dp314
S'start'
p315
S'3.0'
p316
sS'dim'
p317
I1
sS'end'
p318
S'4.0'
p319
sS'composition'
p320
(lp321
(lp322
S'14'
p323
aS'15'
p324
aa(lp325
S'9'
p326
aS'14'
p327
aa(lp328
S'10'
p329
aS'15'
p330
aa(lp331
S'9'
p332
aS'10'
p333
aasbag2
(g3
g4
Ntp334
Rp335
(dp336
S'start'
p337
S'3.0'
p338
sS'dim'
p339
I1
sS'end'
p340
S'4.0'
p341
sS'composition'
p342
(lp343
(lp344
S'15'
p345
aS'19'
p346
aa(lp347
S'28'
p348
aS'30'
p349
aa(lp350
S'18'
p351
aS'19'
p352
aa(lp353
S'28'
p354
aS'31'
p355
aa(lp356
S'25'
p357
aS'31'
p358
aa(lp359
S'18'
p360
aS'23'
p361
aa(lp362
S'23'
p363
aS'30'
p364
aa(lp365
S'15'
p366
aS'20'
p367
aa(lp368
S'20'
p369
aS'25'
p370
aasbag2
(g3
g4
Ntp371
Rp372
(dp373
S'start'
p374
S'2.0'
p375
sS'dim'
p376
I1
sS'end'
p377
S'5.0'
p378
sS'composition'
p379
(lp380
(lp381
S'28'
p382
aS'31'
p383
aa(lp384
S'25'
p385
aS'31'
p386
aa(lp387
S'8'
p388
aS'13'
p389
aa(lp390
S'4'
p391
aS'5'
p392
aa(lp393
S'23'
p394
aS'30'
p395
aa(lp396
S'20'
p397
aS'25'
p398
aa(lp399
S'10'
p400
aS'15'
p401
aa(lp402
S'3'
p403
aS'4'
p404
aa(lp405
S'15'
p406
aS'20'
p407
aa(lp408
S'13'
p409
aS'18'
p410
aa(lp411
S'5'
p412
aS'10'
p413
aa(lp414
S'18'
p415
aS'23'
p416
aa(lp417
S'28'
p418
aS'30'
p419
aa(lp420
S'3'
p421
aS'8'
p422
aasbag2
(g3
g4
Ntp423
Rp424
(dp425
S'start'
p426
S'7.0'
p427
sS'dim'
p428
I1
sS'end'
p429
S'8.0'
p430
sS'composition'
p431
(lp432
(lp433
S'6'
p434
aS'10'
p435
aa(lp436
S'10'
p437
aS'15'
p438
aa(lp439
S'6'
p440
aS'16'
p441
aa(lp442
S'15'
p443
aS'16'
p444
aasbag2
(g3
g4
Ntp445
Rp446
(dp447
S'start'
p448
S'7.0'
p449
sS'dim'
p450
I1
sS'end'
p451
S'8.0'
p452
sS'composition'
p453
(lp454
(lp455
S'22'
p456
aS'23'
p457
aa(lp458
S'13'
p459
aS'17'
p460
aa(lp461
S'17'
p462
aS'22'
p463
aa(lp464
S'13'
p465
aS'18'
p466
aa(lp467
S'18'
p468
aS'23'
p469
aasbag2
(g3
g4
Ntp470
Rp471
(dp472
S'start'
p473
S'8.0'
p474
sS'dim'
p475
I1
sS'end'
p476
S'9.0'
p477
sS'composition'
p478
(lp479
(lp480
S'20'
p481
aS'21'
p482
aa(lp483
S'21'
p484
aS'26'
p485
aa(lp486
S'20'
p487
aS'25'
p488
aa(lp489
S'25'
p490
aS'26'
p491
aasbas.