(dp0
I0
(lp1
ccopy_reg
_reconstructor
p2
(cHoles
Cycle
p3
c__builtin__
object
p4
Ntp5
Rp6
(dp7
S'start'
p8
S'0.0'
p9
sS'dim'
p10
I0
sS'end'
p11
S'1.0'
p12
sS'composition'
p13
(lp14
(lp15
S'16'
p16
aa(lp17
S'11'
p18
aasbag2
(g3
g4
Ntp19
Rp20
(dp21
S'start'
p22
S'0.0'
p23
sS'dim'
p24
I0
sS'end'
p25
S'1.0'
p26
sS'composition'
p27
(lp28
(lp29
S'16'
p30
aa(lp31
S'21'
p32
aasbag2
(g3
g4
Ntp33
Rp34
(dp35
S'start'
p36
S'0.0'
p37
sS'dim'
p38
I0
sS'end'
p39
S'1.0'
p40
sS'composition'
p41
(lp42
(lp43
S'18'
p44
aa(lp45
S'22'
p46
aasbag2
(g3
g4
Ntp47
Rp48
(dp49
S'start'
p50
S'0.0'
p51
sS'dim'
p52
I0
sS'end'
p53
S'1.0'
p54
sS'composition'
p55
(lp56
(lp57
S'20'
p58
aa(lp59
S'25'
p60
aasbag2
(g3
g4
Ntp61
Rp62
(dp63
S'start'
p64
S'0.0'
p65
sS'dim'
p66
I0
sS'end'
p67
S'1.0'
p68
sS'composition'
p69
(lp70
(lp71
S'20'
p72
aa(lp73
S'26'
p74
aasbag2
(g3
g4
Ntp75
Rp76
(dp77
S'start'
p78
S'0.0'
p79
sS'dim'
p80
I0
sS'end'
p81
S'1.0'
p82
sS'composition'
p83
(lp84
(lp85
S'29'
p86
aa(lp87
S'25'
p88
aasbag2
(g3
g4
Ntp89
Rp90
(dp91
S'start'
p92
S'0.0'
p93
sS'dim'
p94
I0
sS'end'
p95
S'1.0'
p96
sS'composition'
p97
(lp98
(lp99
S'25'
p100
aa(lp101
S'28'
p102
aasbag2
(g3
g4
Ntp103
Rp104
(dp105
S'start'
p106
S'0.0'
p107
sS'dim'
p108
I0
sS'end'
p109
S'2.0'
p110
sS'composition'
p111
(lp112
(lp113
S'7'
p114
aa(lp115
S'2'
p116
aasbag2
(g3
g4
Ntp117
Rp118
(dp119
S'start'
p120
S'0.0'
p121
sS'dim'
p122
I0
sS'end'
p123
S'2.0'
p124
sS'composition'
p125
(lp126
(lp127
S'4'
p128
aa(lp129
S'3'
p130
aasbag2
(g3
g4
Ntp131
Rp132
(dp133
S'start'
p134
S'0.0'
p135
sS'dim'
p136
I0
sS'end'
p137
S'2.0'
p138
sS'composition'
p139
(lp140
(lp141
S'8'
p142
aa(lp143
S'3'
p144
aasbag2
(g3
g4
Ntp145
Rp146
(dp147
S'start'
p148
S'0.0'
p149
sS'dim'
p150
I0
sS'end'
p151
S'2.0'
p152
sS'composition'
p153
(lp154
(lp155
S'4'
p156
aa(lp157
S'9'
p158
aasbag2
(g3
g4
Ntp159
Rp160
(dp161
S'start'
p162
S'0.0'
p163
sS'dim'
p164
I0
sS'end'
p165
S'2.0'
p166
sS'composition'
p167
(lp168
(lp169
S'6'
p170
aa(lp171
S'5'
p172
aasbag2
(g3
g4
Ntp173
Rp174
(dp175
S'start'
p176
S'0.0'
p177
sS'dim'
p178
I0
sS'end'
p179
S'2.0'
p180
sS'composition'
p181
(lp182
(lp183
S'12'
p184
aa(lp185
S'7'
p186
aasbag2
(g3
g4
Ntp187
Rp188
(dp189
S'start'
p190
S'0.0'
p191
sS'dim'
p192
I0
sS'end'
p193
S'2.0'
p194
sS'composition'
p195
(lp196
(lp197
S'18'
p198
aa(lp199
S'17'
p200
aasbag2
(g3
g4
Ntp201
Rp202
(dp203
S'start'
p204
S'0.0'
p205
sS'dim'
p206
I0
sS'end'
p207
S'3.0'
p208
sS'composition'
p209
(lp210
(lp211
S'4'
p212
aa(lp213
S'5'
p214
aasbag2
(g3
g4
Ntp215
Rp216
(dp217
S'start'
p218
S'0.0'
p219
sS'dim'
p220
I0
sS'end'
p221
S'3.0'
p222
sS'composition'
p223
(lp224
(lp225
S'10'
p226
aa(lp227
S'5'
p228
aasbag2
(g3
g4
Ntp229
Rp230
(dp231
S'start'
p232
S'0.0'
p233
sS'dim'
p234
I0
sS'end'
p235
S'3.0'
p236
sS'composition'
p237
(lp238
(lp239
S'8'
p240
aa(lp241
S'13'
p242
aasbag2
(g3
g4
Ntp243
Rp244
(dp245
S'start'
p246
S'0.0'
p247
sS'dim'
p248
I0
sS'end'
p249
S'3.0'
p250
sS'composition'
p251
(lp252
(lp253
S'14'
p254
aa(lp255
S'9'
p256
aasbag2
(g3
g4
Ntp257
Rp258
(dp259
S'start'
p260
S'0.0'
p261
sS'dim'
p262
I0
sS'end'
p263
S'3.0'
p264
sS'composition'
p265
(lp266
(lp267
S'15'
p268
aa(lp269
S'11'
p270
aasbag2
(g3
g4
Ntp271
Rp272
(dp273
S'start'
p274
S'0.0'
p275
sS'dim'
p276
I0
sS'end'
p277
S'3.0'
p278
sS'composition'
p279
(lp280
(lp281
S'13'
p282
aa(lp283
S'17'
p284
aasbag2
(g3
g4
Ntp285
Rp286
(dp287
S'start'
p288
S'0.0'
p289
sS'dim'
p290
I0
sS'end'
p291
S'3.0'
p292
sS'composition'
p293
(lp294
(lp295
S'27'
p296
aa(lp297
S'23'
p298
aasbag2
(g3
g4
Ntp299
Rp300
(dp301
S'start'
p302
S'0.0'
p303
sS'dim'
p304
I0
sS'end'
p305
S'3.0'
p306
sS'composition'
p307
(lp308
(lp309
S'20'
p310
aa(lp311
S'23'
p312
aasbag2
(g3
g4
Ntp313
Rp314
(dp315
S'start'
p316
S'0.0'
p317
sS'dim'
p318
I0
sS'end'
p319
S'4.0'
p320
sS'composition'
p321
(lp322
(lp323
S'3'
p324
aa(lp325
S'1'
p326
aasbag2
(g3
g4
Ntp327
Rp328
(dp329
S'start'
p330
S'0.0'
p331
sS'dim'
p332
I0
sS'end'
p333
S'4.0'
p334
sS'composition'
p335
(lp336
(lp337
S'20'
p338
aa(lp339
S'15'
p340
aasbag2
(g3
g4
Ntp341
Rp342
(dp343
S'start'
p344
S'0.0'
p345
sS'dim'
p346
I0
sS'end'
p347
S'4.0'
p348
sS'composition'
p349
(lp350
(lp351
S'8'
p352
aa(lp353
S'11'
p354
aasbag2
(g3
g4
Ntp355
Rp356
(dp357
S'start'
p358
S'0.0'
p359
sS'dim'
p360
I0
sS'end'
p361
S'5.0'
p362
sS'composition'
p363
(lp364
(lp365
S'2'
p366
aa(lp367
S'1'
p368
aasbag2
(g3
g4
Ntp369
Rp370
(dp371
S'start'
p372
S'0.0'
p373
sS'dim'
p374
I0
sS'end'
p375
S'7.0'
p376
sS'composition'
p377
(lp378
(lp379
S'19'
p380
aa(lp381
S'15'
p382
aasbag2
(g3
g4
Ntp383
Rp384
(dp385
S'start'
p386
S'0.0'
p387
sS'dim'
p388
I0
sS'end'
p389
S'13.0'
p390
sS'composition'
p391
(lp392
(lp393
S'0'
p394
aa(lp395
S'1'
p396
aasbag2
(g3
g4
Ntp397
Rp398
(dp399
S'start'
p400
S'0.0'
p401
sS'dim'
p402
I0
sS'end'
p403
S'33'
p404
sS'composition'
p405
(lp406
(lp407
S'0'
p408
aasbasI1
(lp409
g2
(g3
g4
Ntp410
Rp411
(dp412
S'start'
p413
S'3.0'
p414
sS'dim'
p415
I1
sS'end'
p416
S'4.0'
p417
sS'composition'
p418
(lp419
(lp420
S'3'
p421
aS'8'
p422
aa(lp423
S'4'
p424
aS'9'
p425
aa(lp426
S'8'
p427
aS'9'
p428
aa(lp429
S'3'
p430
aS'4'
p431
aasbag2
(g3
g4
Ntp432
Rp433
(dp434
S'start'
p435
S'3.0'
p436
sS'dim'
p437
I1
sS'end'
p438
S'4.0'
p439
sS'composition'
p440
(lp441
(lp442
S'4'
p443
aS'5'
p444
aa(lp445
S'5'
p446
aS'10'
p447
aa(lp448
S'4'
p449
aS'9'
p450
aa(lp451
S'9'
p452
aS'10'
p453
aasbag2
(g3
g4
Ntp454
Rp455
(dp456
S'start'
p457
S'5.0'
p458
sS'dim'
p459
I1
sS'end'
p460
S'6.0'
p461
sS'composition'
p462
(lp463
(lp464
S'2'
p465
aS'3'
p466
aa(lp467
S'8'
p468
aS'12'
p469
aa(lp470
S'3'
p471
aS'8'
p472
aa(lp473
S'2'
p474
aS'12'
p475
aasbag2
(g3
g4
Ntp476
Rp477
(dp478
S'start'
p479
S'6.0'
p480
sS'dim'
p481
I1
sS'end'
p482
S'7.0'
p483
sS'composition'
p484
(lp485
(lp486
S'14'
p487
aS'15'
p488
aa(lp489
S'9'
p490
aS'14'
p491
aa(lp492
S'10'
p493
aS'15'
p494
aa(lp495
S'9'
p496
aS'10'
p497
aasbag2
(g3
g4
Ntp498
Rp499
(dp500
S'start'
p501
S'9.0'
p502
sS'dim'
p503
I1
sS'end'
p504
S'12.0'
p505
sS'composition'
p506
(lp507
(lp508
S'10'
p509
aS'14'
p510
aa(lp511
S'14'
p512
aS'19'
p513
aa(lp514
S'19'
p515
aS'28'
p516
aa(lp517
S'20'
p518
aS'28'
p519
aa(lp520
S'11'
p521
aS'20'
p522
aa(lp523
S'10'
p524
aS'11'
p525
aasbag2
(g3
g4
Ntp526
Rp527
(dp528
S'start'
p529
S'5.0'
p530
sS'dim'
p531
I1
sS'end'
p532
S'12.0'
p533
sS'composition'
p534
(lp535
(lp536
S'25'
p537
aS'29'
p538
aa(lp539
S'23'
p540
aS'27'
p541
aa(lp542
S'9'
p543
aS'10'
p544
aa(lp545
S'8'
p546
aS'9'
p547
aa(lp548
S'28'
p549
aS'29'
p550
aa(lp551
S'8'
p552
aS'13'
p553
aa(lp554
S'20'
p555
aS'25'
p556
aa(lp557
S'10'
p558
aS'15'
p559
aa(lp560
S'15'
p561
aS'20'
p562
aa(lp563
S'13'
p564
aS'18'
p565
aa(lp566
S'18'
p567
aS'23'
p568
aa(lp569
S'27'
p570
aS'28'
p571
aasbas.