(dp0
I0
(lp1
ccopy_reg
_reconstructor
p2
(cHoles
Cycle
p3
c__builtin__
object
p4
Ntp5
Rp6
(dp7
S'start'
p8
S'0.0'
p9
sS'dim'
p10
I0
sS'end'
p11
S'1.0'
p12
sS'composition'
p13
(lp14
(lp15
S'0'
p16
aa(lp17
S'1'
p18
aasbag2
(g3
g4
Ntp19
Rp20
(dp21
S'start'
p22
S'0.0'
p23
sS'dim'
p24
I0
sS'end'
p25
S'1.0'
p26
sS'composition'
p27
(lp28
(lp29
S'3'
p30
aa(lp31
S'0'
p32
aasbag2
(g3
g4
Ntp33
Rp34
(dp35
S'start'
p36
S'0.0'
p37
sS'dim'
p38
I0
sS'end'
p39
S'1.0'
p40
sS'composition'
p41
(lp42
(lp43
S'4'
p44
aa(lp45
S'0'
p46
aasbag2
(g3
g4
Ntp47
Rp48
(dp49
S'start'
p50
S'0.0'
p51
sS'dim'
p52
I0
sS'end'
p53
S'1.0'
p54
sS'composition'
p55
(lp56
(lp57
S'8'
p58
aa(lp59
S'3'
p60
aasbag2
(g3
g4
Ntp61
Rp62
(dp63
S'start'
p64
S'0.0'
p65
sS'dim'
p66
I0
sS'end'
p67
S'1.0'
p68
sS'composition'
p69
(lp70
(lp71
S'10'
p72
aa(lp73
S'4'
p74
aasbag2
(g3
g4
Ntp75
Rp76
(dp77
S'start'
p78
S'0.0'
p79
sS'dim'
p80
I0
sS'end'
p81
S'1.0'
p82
sS'composition'
p83
(lp84
(lp85
S'8'
p86
aa(lp87
S'13'
p88
aasbag2
(g3
g4
Ntp89
Rp90
(dp91
S'start'
p92
S'0.0'
p93
sS'dim'
p94
I0
sS'end'
p95
S'2.0'
p96
sS'composition'
p97
(lp98
(lp99
S'2'
p100
aa(lp101
S'0'
p102
aasbag2
(g3
g4
Ntp103
Rp104
(dp105
S'start'
p106
S'0.0'
p107
sS'dim'
p108
I0
sS'end'
p109
S'2.0'
p110
sS'composition'
p111
(lp112
(lp113
S'7'
p114
aa(lp115
S'2'
p116
aasbag2
(g3
g4
Ntp117
Rp118
(dp119
S'start'
p120
S'0.0'
p121
sS'dim'
p122
I0
sS'end'
p123
S'2.0'
p124
sS'composition'
p125
(lp126
(lp127
S'14'
p128
aa(lp129
S'9'
p130
aasbag2
(g3
g4
Ntp131
Rp132
(dp133
S'start'
p134
S'0.0'
p135
sS'dim'
p136
I0
sS'end'
p137
S'2.0'
p138
sS'composition'
p139
(lp140
(lp141
S'10'
p142
aa(lp143
S'15'
p144
aasbag2
(g3
g4
Ntp145
Rp146
(dp147
S'start'
p148
S'0.0'
p149
sS'dim'
p150
I0
sS'end'
p151
S'2.0'
p152
sS'composition'
p153
(lp154
(lp155
S'23'
p156
aa(lp157
S'18'
p158
aasbag2
(g3
g4
Ntp159
Rp160
(dp161
S'start'
p162
S'0.0'
p163
sS'dim'
p164
I0
sS'end'
p165
S'2.0'
p166
sS'composition'
p167
(lp168
(lp169
S'19'
p170
aa(lp171
S'24'
p172
aasbag2
(g3
g4
Ntp173
Rp174
(dp175
S'start'
p176
S'0.0'
p177
sS'dim'
p178
I0
sS'end'
p179
S'2.0'
p180
sS'composition'
p181
(lp182
(lp183
S'28'
p184
aa(lp185
S'27'
p186
aasbag2
(g3
g4
Ntp187
Rp188
(dp189
S'start'
p190
S'0.0'
p191
sS'dim'
p192
I0
sS'end'
p193
S'2.0'
p194
sS'composition'
p195
(lp196
(lp197
S'30'
p198
aa(lp199
S'28'
p200
aasbag2
(g3
g4
Ntp201
Rp202
(dp203
S'start'
p204
S'0.0'
p205
sS'dim'
p206
I0
sS'end'
p207
S'3.0'
p208
sS'composition'
p209
(lp210
(lp211
S'4'
p212
aa(lp213
S'5'
p214
aasbag2
(g3
g4
Ntp215
Rp216
(dp217
S'start'
p218
S'0.0'
p219
sS'dim'
p220
I0
sS'end'
p221
S'3.0'
p222
sS'composition'
p223
(lp224
(lp225
S'12'
p226
aa(lp227
S'7'
p228
aasbag2
(g3
g4
Ntp229
Rp230
(dp231
S'start'
p232
S'0.0'
p233
sS'dim'
p234
I0
sS'end'
p235
S'3.0'
p236
sS'composition'
p237
(lp238
(lp239
S'20'
p240
aa(lp241
S'15'
p242
aasbag2
(g3
g4
Ntp243
Rp244
(dp245
S'start'
p246
S'0.0'
p247
sS'dim'
p248
I0
sS'end'
p249
S'3.0'
p250
sS'composition'
p251
(lp252
(lp253
S'14'
p254
aa(lp255
S'18'
p256
aasbag2
(g3
g4
Ntp257
Rp258
(dp259
S'start'
p260
S'0.0'
p261
sS'dim'
p262
I0
sS'end'
p263
S'3.0'
p264
sS'composition'
p265
(lp266
(lp267
S'25'
p268
aa(lp269
S'26'
p270
aasbag2
(g3
g4
Ntp271
Rp272
(dp273
S'start'
p274
S'0.0'
p275
sS'dim'
p276
I0
sS'end'
p277
S'3.0'
p278
sS'composition'
p279
(lp280
(lp281
S'25'
p282
aa(lp283
S'27'
p284
aasbag2
(g3
g4
Ntp285
Rp286
(dp287
S'start'
p288
S'0.0'
p289
sS'dim'
p290
I0
sS'end'
p291
S'4.0'
p292
sS'composition'
p293
(lp294
(lp295
S'6'
p296
aa(lp297
S'1'
p298
aasbag2
(g3
g4
Ntp299
Rp300
(dp301
S'start'
p302
S'0.0'
p303
sS'dim'
p304
I0
sS'end'
p305
S'4.0'
p306
sS'composition'
p307
(lp308
(lp309
S'25'
p310
aa(lp311
S'21'
p312
aasbag2
(g3
g4
Ntp313
Rp314
(dp315
S'start'
p316
S'0.0'
p317
sS'dim'
p318
I0
sS'end'
p319
S'4.0'
p320
sS'composition'
p321
(lp322
(lp323
S'18'
p324
aa(lp325
S'21'
p326
aasbag2
(g3
g4
Ntp327
Rp328
(dp329
S'start'
p330
S'0.0'
p331
sS'dim'
p332
I0
sS'end'
p333
S'5.0'
p334
sS'composition'
p335
(lp336
(lp337
S'6'
p338
aa(lp339
S'11'
p340
aasbag2
(g3
g4
Ntp341
Rp342
(dp343
S'start'
p344
S'0.0'
p345
sS'dim'
p346
I0
sS'end'
p347
S'7.0'
p348
sS'composition'
p349
(lp350
(lp351
S'12'
p352
aa(lp353
S'17'
p354
aasbag2
(g3
g4
Ntp355
Rp356
(dp357
S'start'
p358
S'0.0'
p359
sS'dim'
p360
I0
sS'end'
p361
S'7.0'
p362
sS'composition'
p363
(lp364
(lp365
S'16'
p366
aa(lp367
S'15'
p368
aasbag2
(g3
g4
Ntp369
Rp370
(dp371
S'start'
p372
S'0.0'
p373
sS'dim'
p374
I0
sS'end'
p375
S'7.0'
p376
sS'composition'
p377
(lp378
(lp379
S'17'
p380
aa(lp381
S'22'
p382
aasbag2
(g3
g4
Ntp383
Rp384
(dp385
S'start'
p386
S'0.0'
p387
sS'dim'
p388
I0
sS'end'
p389
S'32'
p390
sS'composition'
p391
(lp392
(lp393
S'0'
p394
aasbasI1
(lp395
g2
(g3
g4
Ntp396
Rp397
(dp398
S'start'
p399
S'2.0'
p400
sS'dim'
p401
I1
sS'end'
p402
S'3.0'
p403
sS'composition'
p404
(lp405
(lp406
S'13'
p407
aS'14'
p408
aa(lp409
S'3'
p410
aS'8'
p411
aa(lp412
S'9'
p413
aS'14'
p414
aa(lp415
S'3'
p416
aS'9'
p417
aa(lp418
S'8'
p419
aS'13'
p420
aasbag2
(g3
g4
Ntp421
Rp422
(dp423
S'start'
p424
S'4.0'
p425
sS'dim'
p426
I1
sS'end'
p427
S'5.0'
p428
sS'composition'
p429
(lp430
(lp431
S'15'
p432
aS'19'
p433
aa(lp434
S'19'
p435
aS'24'
p436
aa(lp437
S'15'
p438
aS'20'
p439
aa(lp440
S'20'
p441
aS'24'
p442
aasbag2
(g3
g4
Ntp443
Rp444
(dp445
S'start'
p446
S'5.0'
p447
sS'dim'
p448
I1
sS'end'
p449
S'6.0'
p450
sS'composition'
p451
(lp452
(lp453
S'3'
p454
aS'7'
p455
aa(lp456
S'7'
p457
aS'12'
p458
aa(lp459
S'12'
p460
aS'13'
p461
aa(lp462
S'3'
p463
aS'13'
p464
aasbag2
(g3
g4
Ntp465
Rp466
(dp467
S'start'
p468
S'7.0'
p469
sS'dim'
p470
I1
sS'end'
p471
S'8.0'
p472
sS'composition'
p473
(lp474
(lp475
S'6'
p476
aS'11'
p477
aa(lp478
S'1'
p479
aS'10'
p480
aa(lp481
S'1'
p482
aS'6'
p483
aa(lp484
S'10'
p485
aS'11'
p486
aasbag2
(g3
g4
Ntp487
Rp488
(dp489
S'start'
p490
S'6.0'
p491
sS'dim'
p492
I1
sS'end'
p493
S'8.0'
p494
sS'composition'
p495
(lp496
(lp497
S'25'
p498
aS'28'
p499
aa(lp500
S'23'
p501
aS'28'
p502
aa(lp503
S'23'
p504
aS'24'
p505
aa(lp506
S'20'
p507
aS'24'
p508
aa(lp509
S'20'
p510
aS'25'
p511
aasbag2
(g3
g4
Ntp512
Rp513
(dp514
S'start'
p515
S'7.0'
p516
sS'dim'
p517
I1
sS'end'
p518
S'10.0'
p519
sS'composition'
p520
(lp521
(lp522
S'21'
p523
aS'26'
p524
aa(lp525
S'16'
p526
aS'20'
p527
aa(lp528
S'25'
p529
aS'26'
p530
aa(lp531
S'16'
p532
aS'21'
p533
aa(lp534
S'20'
p535
aS'25'
p536
aasbag2
(g3
g4
Ntp537
Rp538
(dp539
S'start'
p540
S'9.0'
p541
sS'dim'
p542
I1
sS'end'
p543
S'12.0'
p544
sS'composition'
p545
(lp546
(lp547
S'12'
p548
aS'17'
p549
aa(lp550
S'8'
p551
aS'12'
p552
aa(lp553
S'18'
p554
aS'23'
p555
aa(lp556
S'17'
p557
aS'22'
p558
aa(lp559
S'8'
p560
aS'18'
p561
aa(lp562
S'22'
p563
aS'23'
p564
aasbag2
(g3
g4
Ntp565
Rp566
(dp567
S'start'
p568
S'18.0'
p569
sS'dim'
p570
I1
sS'end'
p571
S'20.0'
p572
sS'composition'
p573
(lp574
(lp575
S'0'
p576
aS'19'
p577
aa(lp578
S'26'
p579
aS'29'
p580
aa(lp581
S'19'
p582
aS'29'
p583
aa(lp584
S'0'
p585
aS'26'
p586
aasbas.