(dp0
I0
(lp1
ccopy_reg
_reconstructor
p2
(cHoles
Cycle
p3
c__builtin__
object
p4
Ntp5
Rp6
(dp7
S'start'
p8
S'0.0'
p9
sS'dim'
p10
I0
sS'end'
p11
S'1.0'
p12
sS'composition'
p13
(lp14
(lp15
S'4'
p16
aa(lp17
S'5'
p18
aasbag2
(g3
g4
Ntp19
Rp20
(dp21
S'start'
p22
S'0.0'
p23
sS'dim'
p24
I0
sS'end'
p25
S'1.0'
p26
sS'composition'
p27
(lp28
(lp29
S'10'
p30
aa(lp31
S'5'
p32
aasbag2
(g3
g4
Ntp33
Rp34
(dp35
S'start'
p36
S'0.0'
p37
sS'dim'
p38
I0
sS'end'
p39
S'1.0'
p40
sS'composition'
p41
(lp42
(lp43
S'8'
p44
aa(lp45
S'13'
p46
aasbag2
(g3
g4
Ntp47
Rp48
(dp49
S'start'
p50
S'0.0'
p51
sS'dim'
p52
I0
sS'end'
p53
S'1.0'
p54
sS'composition'
p55
(lp56
(lp57
S'14'
p58
aa(lp59
S'15'
p60
aasbag2
(g3
g4
Ntp61
Rp62
(dp63
S'start'
p64
S'0.0'
p65
sS'dim'
p66
I0
sS'end'
p67
S'1.0'
p68
sS'composition'
p69
(lp70
(lp71
S'19'
p72
aa(lp73
S'14'
p74
aasbag2
(g3
g4
Ntp75
Rp76
(dp77
S'start'
p78
S'0.0'
p79
sS'dim'
p80
I0
sS'end'
p81
S'1.0'
p82
sS'composition'
p83
(lp84
(lp85
S'20'
p86
aa(lp87
S'15'
p88
aasbag2
(g3
g4
Ntp89
Rp90
(dp91
S'start'
p92
S'0.0'
p93
sS'dim'
p94
I0
sS'end'
p95
S'1.0'
p96
sS'composition'
p97
(lp98
(lp99
S'23'
p100
aa(lp101
S'18'
p102
aasbag2
(g3
g4
Ntp103
Rp104
(dp105
S'start'
p106
S'0.0'
p107
sS'dim'
p108
I0
sS'end'
p109
S'1.0'
p110
sS'composition'
p111
(lp112
(lp113
S'19'
p114
aa(lp115
S'24'
p116
aasbag2
(g3
g4
Ntp117
Rp118
(dp119
S'start'
p120
S'0.0'
p121
sS'dim'
p122
I0
sS'end'
p123
S'1.0'
p124
sS'composition'
p125
(lp126
(lp127
S'20'
p128
aa(lp129
S'25'
p130
aasbag2
(g3
g4
Ntp131
Rp132
(dp133
S'start'
p134
S'0.0'
p135
sS'dim'
p136
I0
sS'end'
p137
S'1.0'
p138
sS'composition'
p139
(lp140
(lp141
S'21'
p142
aa(lp143
S'26'
p144
aasbag2
(g3
g4
Ntp145
Rp146
(dp147
S'start'
p148
S'0.0'
p149
sS'dim'
p150
I0
sS'end'
p151
S'1.0'
p152
sS'composition'
p153
(lp154
(lp155
S'30'
p156
aa(lp157
S'23'
p158
aasbag2
(g3
g4
Ntp159
Rp160
(dp161
S'start'
p162
S'0.0'
p163
sS'dim'
p164
I0
sS'end'
p165
S'1.0'
p166
sS'composition'
p167
(lp168
(lp169
S'27'
p170
aa(lp171
S'23'
p172
aasbag2
(g3
g4
Ntp173
Rp174
(dp175
S'start'
p176
S'0.0'
p177
sS'dim'
p178
I0
sS'end'
p179
S'1.0'
p180
sS'composition'
p181
(lp182
(lp183
S'4'
p184
aa(lp185
S'8'
p186
aasbag2
(g3
g4
Ntp187
Rp188
(dp189
S'start'
p190
S'0.0'
p191
sS'dim'
p192
I0
sS'end'
p193
S'2.0'
p194
sS'composition'
p195
(lp196
(lp197
S'7'
p198
aa(lp199
S'2'
p200
aasbag2
(g3
g4
Ntp201
Rp202
(dp203
S'start'
p204
S'0.0'
p205
sS'dim'
p206
I0
sS'end'
p207
S'2.0'
p208
sS'composition'
p209
(lp210
(lp211
S'4'
p212
aa(lp213
S'3'
p214
aasbag2
(g3
g4
Ntp215
Rp216
(dp217
S'start'
p218
S'0.0'
p219
sS'dim'
p220
I0
sS'end'
p221
S'2.0'
p222
sS'composition'
p223
(lp224
(lp225
S'12'
p226
aa(lp227
S'7'
p228
aasbag2
(g3
g4
Ntp229
Rp230
(dp231
S'start'
p232
S'0.0'
p233
sS'dim'
p234
I0
sS'end'
p235
S'2.0'
p236
sS'composition'
p237
(lp238
(lp239
S'18'
p240
aa(lp241
S'21'
p242
aasbag2
(g3
g4
Ntp243
Rp244
(dp245
S'start'
p246
S'0.0'
p247
sS'dim'
p248
I0
sS'end'
p249
S'3.0'
p250
sS'composition'
p251
(lp252
(lp253
S'0'
p254
aa(lp255
S'1'
p256
aasbag2
(g3
g4
Ntp257
Rp258
(dp259
S'start'
p260
S'0.0'
p261
sS'dim'
p262
I0
sS'end'
p263
S'3.0'
p264
sS'composition'
p265
(lp266
(lp267
S'3'
p268
aa(lp269
S'0'
p270
aasbag2
(g3
g4
Ntp271
Rp272
(dp273
S'start'
p274
S'0.0'
p275
sS'dim'
p276
I0
sS'end'
p277
S'3.0'
p278
sS'composition'
p279
(lp280
(lp281
S'5'
p282
aa(lp283
S'11'
p284
aasbag2
(g3
g4
Ntp285
Rp286
(dp287
S'start'
p288
S'0.0'
p289
sS'dim'
p290
I0
sS'end'
p291
S'3.0'
p292
sS'composition'
p293
(lp294
(lp295
S'16'
p296
aa(lp297
S'11'
p298
aasbag2
(g3
g4
Ntp299
Rp300
(dp301
S'start'
p302
S'0.0'
p303
sS'dim'
p304
I0
sS'end'
p305
S'4.0'
p306
sS'composition'
p307
(lp308
(lp309
S'6'
p310
aa(lp311
S'5'
p312
aasbag2
(g3
g4
Ntp313
Rp314
(dp315
S'start'
p316
S'0.0'
p317
sS'dim'
p318
I0
sS'end'
p319
S'5.0'
p320
sS'composition'
p321
(lp322
(lp323
S'2'
p324
aa(lp325
S'0'
p326
aasbag2
(g3
g4
Ntp327
Rp328
(dp329
S'start'
p330
S'0.0'
p331
sS'dim'
p332
I0
sS'end'
p333
S'5.0'
p334
sS'composition'
p335
(lp336
(lp337
S'17'
p338
aa(lp339
S'22'
p340
aasbag2
(g3
g4
Ntp341
Rp342
(dp343
S'start'
p344
S'0.0'
p345
sS'dim'
p346
I0
sS'end'
p347
S'6.0'
p348
sS'composition'
p349
(lp350
(lp351
S'12'
p352
aa(lp353
S'17'
p354
aasbag2
(g3
g4
Ntp355
Rp356
(dp357
S'start'
p358
S'0.0'
p359
sS'dim'
p360
I0
sS'end'
p361
S'27'
p362
sS'composition'
p363
(lp364
(lp365
S'0'
p366
aasbasI1
(lp367
g2
(g3
g4
Ntp368
Rp369
(dp370
S'start'
p371
S'1.0'
p372
sS'dim'
p373
I1
sS'end'
p374
S'2.0'
p375
sS'composition'
p376
(lp377
(lp378
S'4'
p379
aS'5'
p380
aa(lp381
S'5'
p382
aS'10'
p383
aa(lp384
S'4'
p385
aS'9'
p386
aa(lp387
S'9'
p388
aS'10'
p389
aasbag2
(g3
g4
Ntp390
Rp391
(dp392
S'start'
p393
S'1.0'
p394
sS'dim'
p395
I1
sS'end'
p396
S'2.0'
p397
sS'composition'
p398
(lp399
(lp400
S'14'
p401
aS'15'
p402
aa(lp403
S'14'
p404
aS'19'
p405
aa(lp406
S'19'
p407
aS'20'
p408
aa(lp409
S'15'
p410
aS'20'
p411
aasbag2
(g3
g4
Ntp412
Rp413
(dp414
S'start'
p415
S'2.0'
p416
sS'dim'
p417
I1
sS'end'
p418
S'3.0'
p419
sS'composition'
p420
(lp421
(lp422
S'13'
p423
aS'14'
p424
aa(lp425
S'3'
p426
aS'8'
p427
aa(lp428
S'9'
p429
aS'14'
p430
aa(lp431
S'8'
p432
aS'13'
p433
aa(lp434
S'4'
p435
aS'9'
p436
aa(lp437
S'3'
p438
aS'4'
p439
aasbag2
(g3
g4
Ntp440
Rp441
(dp442
S'start'
p443
S'2.0'
p444
sS'dim'
p445
I1
sS'end'
p446
S'3.0'
p447
sS'composition'
p448
(lp449
(lp450
S'3'
p451
aS'8'
p452
aa(lp453
S'18'
p454
aS'19'
p455
aa(lp456
S'9'
p457
aS'14'
p458
aa(lp459
S'14'
p460
aS'19'
p461
aa(lp462
S'8'
p463
aS'13'
p464
aa(lp465
S'4'
p466
aS'9'
p467
aa(lp468
S'13'
p469
aS'18'
p470
aa(lp471
S'3'
p472
aS'4'
p473
aasbag2
(g3
g4
Ntp474
Rp475
(dp476
S'start'
p477
S'2.0'
p478
sS'dim'
p479
I1
sS'end'
p480
S'3.0'
p481
sS'composition'
p482
(lp483
(lp484
S'19'
p485
aS'24'
p486
aa(lp487
S'25'
p488
aS'31'
p489
aa(lp490
S'24'
p491
aS'31'
p492
aa(lp493
S'19'
p494
aS'20'
p495
aa(lp496
S'20'
p497
aS'25'
p498
aasbag2
(g3
g4
Ntp499
Rp500
(dp501
S'start'
p502
S'3.0'
p503
sS'dim'
p504
I1
sS'end'
p505
S'4.0'
p506
sS'composition'
p507
(lp508
(lp509
S'4'
p510
aS'5'
p511
aa(lp512
S'0'
p513
aS'3'
p514
aa(lp515
S'1'
p516
aS'5'
p517
aa(lp518
S'3'
p519
aS'4'
p520
aa(lp521
S'0'
p522
aS'1'
p523
aasbag2
(g3
g4
Ntp524
Rp525
(dp526
S'start'
p527
S'2.0'
p528
sS'dim'
p529
I1
sS'end'
p530
S'4.0'
p531
sS'composition'
p532
(lp533
(lp534
S'8'
p535
aS'13'
p536
aa(lp537
S'9'
p538
aS'14'
p539
aa(lp540
S'23'
p541
aS'30'
p542
aa(lp543
S'14'
p544
aS'19'
p545
aa(lp546
S'27'
p547
aS'28'
p548
aa(lp549
S'25'
p550
aS'31'
p551
aa(lp552
S'18'
p553
aS'23'
p554
aa(lp555
S'27'
p556
aS'30'
p557
aa(lp558
S'29'
p559
aS'31'
p560
aa(lp561
S'3'
p562
aS'4'
p563
aa(lp564
S'3'
p565
aS'8'
p566
aa(lp567
S'13'
p568
aS'18'
p569
aa(lp570
S'4'
p571
aS'9'
p572
aa(lp573
S'28'
p574
aS'29'
p575
aa(lp576
S'19'
p577
aS'20'
p578
aa(lp579
S'20'
p580
aS'25'
p581
aasbag2
(g3
g4
Ntp582
Rp583
(dp584
S'start'
p585
S'3.0'
p586
sS'dim'
p587
I1
sS'end'
p588
S'7.0'
p589
sS'composition'
p590
(lp591
(lp592
S'9'
p593
aS'15'
p594
aa(lp595
S'5'
p596
aS'11'
p597
aa(lp598
S'16'
p599
aS'21'
p600
aa(lp601
S'11'
p602
aS'16'
p603
aa(lp604
S'25'
p605
aS'31'
p606
aa(lp607
S'21'
p608
aS'26'
p609
aa(lp610
S'26'
p611
aS'29'
p612
aa(lp613
S'29'
p614
aS'31'
p615
aa(lp616
S'15'
p617
aS'20'
p618
aa(lp619
S'5'
p620
aS'9'
p621
aa(lp622
S'20'
p623
aS'25'
p624
aasbag2
(g3
g4
Ntp625
Rp626
(dp627
S'start'
p628
S'7.0'
p629
sS'dim'
p630
I1
sS'end'
p631
S'8.0'
p632
sS'composition'
p633
(lp634
(lp635
S'2'
p636
aS'3'
p637
aa(lp638
S'2'
p639
aS'12'
p640
aa(lp641
S'12'
p642
aS'13'
p643
aa(lp644
S'3'
p645
aS'13'
p646
aasbag2
(g3
g4
Ntp647
Rp648
(dp649
S'start'
p650
S'7.0'
p651
sS'dim'
p652
I1
sS'end'
p653
S'9.0'
p654
sS'composition'
p655
(lp656
(lp657
S'12'
p658
aS'17'
p659
aa(lp660
S'2'
p661
aS'3'
p662
aa(lp663
S'3'
p664
aS'8'
p665
aa(lp666
S'18'
p667
aS'23'
p668
aa(lp669
S'2'
p670
aS'12'
p671
aa(lp672
S'17'
p673
aS'22'
p674
aa(lp675
S'8'
p676
aS'18'
p677
aa(lp678
S'22'
p679
aS'23'
p680
aasbas.