(dp0
I0
(lp1
ccopy_reg
_reconstructor
p2
(cHoles
Cycle
p3
c__builtin__
object
p4
Ntp5
Rp6
(dp7
S'start'
p8
S'0.0'
p9
sS'dim'
p10
I0
sS'end'
p11
S'1.0'
p12
sS'composition'
p13
(lp14
(lp15
S'3'
p16
aa(lp17
S'0'
p18
aasbag2
(g3
g4
Ntp19
Rp20
(dp21
S'start'
p22
S'0.0'
p23
sS'dim'
p24
I0
sS'end'
p25
S'1.0'
p26
sS'composition'
p27
(lp28
(lp29
S'5'
p30
aa(lp31
S'0'
p32
aasbag2
(g3
g4
Ntp33
Rp34
(dp35
S'start'
p36
S'0.0'
p37
sS'dim'
p38
I0
sS'end'
p39
S'1.0'
p40
sS'composition'
p41
(lp42
(lp43
S'7'
p44
aa(lp45
S'2'
p46
aasbag2
(g3
g4
Ntp47
Rp48
(dp49
S'start'
p50
S'0.0'
p51
sS'dim'
p52
I0
sS'end'
p53
S'1.0'
p54
sS'composition'
p55
(lp56
(lp57
S'14'
p58
aa(lp59
S'9'
p60
aasbag2
(g3
g4
Ntp61
Rp62
(dp63
S'start'
p64
S'0.0'
p65
sS'dim'
p66
I0
sS'end'
p67
S'1.0'
p68
sS'composition'
p69
(lp70
(lp71
S'18'
p72
aa(lp73
S'13'
p74
aasbag2
(g3
g4
Ntp75
Rp76
(dp77
S'start'
p78
S'0.0'
p79
sS'dim'
p80
I0
sS'end'
p81
S'1.0'
p82
sS'composition'
p83
(lp84
(lp85
S'20'
p86
aa(lp87
S'25'
p88
aasbag2
(g3
g4
Ntp89
Rp90
(dp91
S'start'
p92
S'0.0'
p93
sS'dim'
p94
I0
sS'end'
p95
S'1.0'
p96
sS'composition'
p97
(lp98
(lp99
S'20'
p100
aa(lp101
S'18'
p102
aasbag2
(g3
g4
Ntp103
Rp104
(dp105
S'start'
p106
S'0.0'
p107
sS'dim'
p108
I0
sS'end'
p109
S'2.0'
p110
sS'composition'
p111
(lp112
(lp113
S'10'
p114
aa(lp115
S'5'
p116
aasbag2
(g3
g4
Ntp117
Rp118
(dp119
S'start'
p120
S'0.0'
p121
sS'dim'
p122
I0
sS'end'
p123
S'2.0'
p124
sS'composition'
p125
(lp126
(lp127
S'6'
p128
aa(lp129
S'11'
p130
aasbag2
(g3
g4
Ntp131
Rp132
(dp133
S'start'
p134
S'0.0'
p135
sS'dim'
p136
I0
sS'end'
p137
S'2.0'
p138
sS'composition'
p139
(lp140
(lp141
S'13'
p142
aa(lp143
S'9'
p144
aasbag2
(g3
g4
Ntp145
Rp146
(dp147
S'start'
p148
S'0.0'
p149
sS'dim'
p150
I0
sS'end'
p151
S'3.0'
p152
sS'composition'
p153
(lp154
(lp155
S'2'
p156
aa(lp157
S'0'
p158
aasbag2
(g3
g4
Ntp159
Rp160
(dp161
S'start'
p162
S'0.0'
p163
sS'dim'
p164
I0
sS'end'
p165
S'3.0'
p166
sS'composition'
p167
(lp168
(lp169
S'8'
p170
aa(lp171
S'3'
p172
aasbag2
(g3
g4
Ntp173
Rp174
(dp175
S'start'
p176
S'0.0'
p177
sS'dim'
p178
I0
sS'end'
p179
S'3.0'
p180
sS'composition'
p181
(lp182
(lp183
S'16'
p184
aa(lp185
S'11'
p186
aasbag2
(g3
g4
Ntp187
Rp188
(dp189
S'start'
p190
S'0.0'
p191
sS'dim'
p192
I0
sS'end'
p193
S'3.0'
p194
sS'composition'
p195
(lp196
(lp197
S'15'
p198
aa(lp199
S'13'
p200
aasbag2
(g3
g4
Ntp201
Rp202
(dp203
S'start'
p204
S'0.0'
p205
sS'dim'
p206
I0
sS'end'
p207
S'3.0'
p208
sS'composition'
p209
(lp210
(lp211
S'17'
p212
aa(lp213
S'22'
p214
aasbag2
(g3
g4
Ntp215
Rp216
(dp217
S'start'
p218
S'0.0'
p219
sS'dim'
p220
I0
sS'end'
p221
S'3.0'
p222
sS'composition'
p223
(lp224
(lp225
S'21'
p226
aa(lp227
S'26'
p228
aasbag2
(g3
g4
Ntp229
Rp230
(dp231
S'start'
p232
S'0.0'
p233
sS'dim'
p234
I0
sS'end'
p235
S'4.0'
p236
sS'composition'
p237
(lp238
(lp239
S'6'
p240
aa(lp241
S'5'
p242
aasbag2
(g3
g4
Ntp243
Rp244
(dp245
S'start'
p246
S'0.0'
p247
sS'dim'
p248
I0
sS'end'
p249
S'5.0'
p250
sS'composition'
p251
(lp252
(lp253
S'16'
p254
aa(lp255
S'21'
p256
aasbag2
(g3
g4
Ntp257
Rp258
(dp259
S'start'
p260
S'0.0'
p261
sS'dim'
p262
I0
sS'end'
p263
S'11.0'
p264
sS'composition'
p265
(lp266
(lp267
S'12'
p268
aa(lp269
S'17'
p270
aasbag2
(g3
g4
Ntp271
Rp272
(dp273
S'start'
p274
S'0.0'
p275
sS'dim'
p276
I0
sS'end'
p277
S'32'
p278
sS'composition'
p279
(lp280
(lp281
S'0'
p282
aasbasI1
(lp283
g2
(g3
g4
Ntp284
Rp285
(dp286
S'start'
p287
S'3.0'
p288
sS'dim'
p289
I1
sS'end'
p290
S'4.0'
p291
sS'composition'
p292
(lp293
(lp294
S'18'
p295
aS'24'
p296
aa(lp297
S'3'
p298
aS'8'
p299
aa(lp300
S'0'
p301
aS'14'
p302
aa(lp303
S'19'
p304
aS'24'
p305
aa(lp306
S'14'
p307
aS'19'
p308
aa(lp309
S'0'
p310
aS'3'
p311
aa(lp312
S'13'
p313
aS'18'
p314
aa(lp315
S'8'
p316
aS'13'
p317
aasbag2
(g3
g4
Ntp318
Rp319
(dp320
S'start'
p321
S'5.0'
p322
sS'dim'
p323
I1
sS'end'
p324
S'7.0'
p325
sS'composition'
p326
(lp327
(lp328
S'11'
p329
aS'16'
p330
aa(lp331
S'21'
p332
aS'26'
p333
aa(lp334
S'15'
p335
aS'20'
p336
aa(lp337
S'10'
p338
aS'15'
p339
aa(lp340
S'20'
p341
aS'26'
p342
aa(lp343
S'16'
p344
aS'21'
p345
aa(lp346
S'10'
p347
aS'11'
p348
aasbag2
(g3
g4
Ntp349
Rp350
(dp351
S'start'
p352
S'5.0'
p353
sS'dim'
p354
I1
sS'end'
p355
S'7.0'
p356
sS'composition'
p357
(lp358
(lp359
S'4'
p360
aS'5'
p361
aa(lp362
S'5'
p363
aS'10'
p364
aa(lp365
S'4'
p366
aS'14'
p367
aa(lp368
S'25'
p369
aS'28'
p370
aa(lp371
S'15'
p372
aS'20'
p373
aa(lp374
S'14'
p375
aS'24'
p376
aa(lp377
S'10'
p378
aS'15'
p379
aa(lp380
S'24'
p381
aS'28'
p382
aa(lp383
S'20'
p384
aS'25'
p385
aasbag2
(g3
g4
Ntp386
Rp387
(dp388
S'start'
p389
S'11.0'
p390
sS'dim'
p391
I1
sS'end'
p392
S'13.0'
p393
sS'composition'
p394
(lp395
(lp396
S'0'
p397
aS'12'
p398
aa(lp399
S'12'
p400
aS'17'
p401
aa(lp402
S'18'
p403
aS'22'
p404
aa(lp405
S'0'
p406
aS'13'
p407
aa(lp408
S'17'
p409
aS'22'
p410
aa(lp411
S'13'
p412
aS'18'
p413
aasbas.